ccollections
defaultdict
p0
(tRp1
(Vc136315a
p2
Vd3f0375b
p3
tp4
(lp5
(((I7
I0
I0
I182
tp6
F2.5
I4
(I0
I0
I86400
I156701
tp7
tp8
F2.5
tp9
as(Vc13786f5
p10
V4f2e47e4
p11
tp12
(lp13
(((I1
I9
I345600
I3036
tp14
F2.2
I4
(I0
I0
I1468800
I1442301
tp15
tp16
F1.88
tp17
as(g2
V37cbbcf0
p18
tp19
(lp20
(((I14
I1
I86400
I102092
tp21
F2.6
I4
(I0
I0
I432000
I408871
tp22
tp23
F2.6
tp24
a((g21
F2.6
I4
(I1
I0
I0
I99907
tp25
tp26
F2.6
tp27
a((g21
F2.6
I4
(I0
I0
I172800
I883912
tp28
tp29
F2.6
tp30
as(g2
V897c9351
p31
tp32
(lp33
(((I3
I0
I0
I61
tp34
F2.5
I4
(I0
I0
I86400
I78193
tp35
tp36
F2.5
tp37
as(g2
Vebd095b6
p38
tp39
(lp40
(((I1
I1
I86400
I92362
tp41
F2.6
I4
(I0
I0
I432000
I435909
tp42
tp43
F2.6
tp44
as(g2
V1b5ee0c1
p45
tp46
(lp47
(((I2
I1
I86400
I80028
tp48
F2.46
I4
(I0
I0
I432000
I1129880
tp49
tp50
F2.46
tp51
as(g2
V324193f6
p52
tp53
(lp54
(((I27
I0
I0
I266
tp55
F2.5
I4
(I0
I0
I86400
I156867
tp56
tp57
F2.5
tp58
a((g55
F2.5
I4
(I1
I0
I0
I13681
tp59
tp60
F2.5
tp61
a((g55
F2.5
I4
(I2
I0
I0
I297
tp62
tp63
F2.5
tp64
a((g55
F2.5
I4
(I3
I0
I0
I202
tp65
tp66
F2.5
tp67
a((g55
F2.5
I4
(I4
I0
I0
I135
tp68
tp69
F2.5
tp70
a((g55
F2.5
I4
(I5
I0
I0
I131
tp71
tp72
F2.5
tp73
a(((I6
I1
I86400
I88609
tp74
F2.6
I4
(I0
I0
I432000
I424266
tp75
tp76
F2.6
tp77
a(((I1
I1
I172800
I156833
tp78
F2.7
I4
(I0
I0
I518400
I1146275
tp79
tp80
F2.7
tp81
as(g2
Vd4ab9107
p82
tp83
(lp84
(((I1
I2
I518400
I496085
tp85
F2.7
I4
(I0
I0
I1123200
I1585112
tp86
tp87
F2.7
tp88
as(g2
V53dbbf51
p89
tp90
(lp91
(((I1
I1
I432000
I0
tp92
F2.6
I4
(I0
I0
I604800
I584626
tp93
tp94
F2.6
tp95
a((g92
F2.6
I4
(I1
I0
I0
I99557
tp96
tp97
F2.6
tp98
a(((I2
I1
I172800
I884027
tp99
F2.7
I4
(I0
I0
I432000
I2237360
tp100
tp101
F2.7
tp102
as(g2
V48be656e
p103
tp104
(lp105
(((I1
I2
I604800
I609188
tp106
F2.7
I4
(I0
I0
I1641600
I3458512
tp107
tp108
F2.7
tp109
as(g2
V751b543b
p110
tp111
(lp112
(((I2
I2
I518400
I495954
tp113
F2.7
I4
(I0
I0
I1209600
I1585247
tp114
tp115
F2.7
tp116
as(g2
V5d5044fb
p117
tp118
(lp119
(((I2
I2
I432000
I420125
tp120
F2.6
I4
(I0
I0
I1382400
I1820558
tp121
tp122
F2.6
tp123
as(g2
V1e671a48
p124
tp125
(lp126
(((I9
I0
I0
I83
tp127
F2.5
I4
(I0
I0
I172800
I145462
tp128
tp129
F2.5
tp130
a((g127
F2.5
I4
(I1
I0
I0
I414
tp131
tp132
F2.5
tp133
a((g127
F2.5
I4
(I2
I0
I0
I95
tp134
tp135
F2.5
tp136
as(g2
V9bf45b3f
p137
tp138
(lp139
(((I2
I1
I172800
I134553
tp140
F2.6
I4
(I0
I0
I604800
I624656
tp141
tp142
F2.6
tp143
a((g140
F2.6
I4
(I1
I0
I0
I200
tp144
tp145
F2.6
tp146
a(((I2
I1
I86400
I25629
tp147
F2.7
I4
(I0
I0
I518400
I858666
tp148
tp149
F2.7
tp150
as(g2
V1951c7ec
p151
tp152
(lp153
(((I1
I2
I518400
I495114
tp154
F2.6
I4
(I0
I0
I1296000
I1585395
tp155
tp156
F2.6
tp157
as(g2
Va17c4563
p158
tp159
(lp160
(((I2
I1
I172800
I157927
tp161
F2.6
I4
(I0
I0
I1468800
I3572360
tp162
tp163
F2.46
tp164
as(g2
Vc387704c
p165
tp166
(lp167
(((I3
I2
I604800
I655177
tp168
F2.46
I4
(I0
I0
I1382400
I3971118
tp169
tp170
F2.46
tp171
as(g2
V7cecc9de
p172
tp173
(lp174
(((I1
I2
I604800
I610242
tp175
F2.6
I4
(I0
I0
I1728000
I3458618
tp176
tp177
F2.6
tp178
as(g2
V50783d4f
p179
tp180
(lp181
(((I1
I0
I0
I0
tp182
F2.5
I4
(I0
I0
I432000
I1062776
tp183
tp184
F2.5
tp185
as(g2
V4e108d46
p186
tp187
(lp188
(((I1
I2
I432000
I435666
tp189
F2.7
I4
(I0
I0
I1382400
I1985606
tp190
tp191
F2.7
tp192
as(g2
V8adb2bae
p193
tp194
(lp195
(((I2
I2
I518400
I524932
tp196
F2.7
I4
(I0
I0
I1555200
I3882455
tp197
tp198
F2.7
tp199
as(g2
V6bc707a2
p200
tp201
(lp202
(((I3
I0
I0
I177
tp203
F2.5
I4
(I0
I0
I172800
I157027
tp204
tp205
F2.5
tp206
a((g203
F2.5
I4
(I1
I0
I0
I13377
tp207
tp208
F2.5
tp209
a(((I2
I1
I86400
I80221
tp210
F2.6
I4
(I0
I0
I604800
I607231
tp211
tp212
F2.6
tp213
a(((I1
I0
I0
I77
tp214
F2.6
I4
(I0
I0
I518400
I1067421
tp215
tp216
F2.6
tp217
as(g2
V14d2c87f
p218
tp219
(lp220
(((I3
I1
I172800
I171204
tp221
F2.6
I4
(I0
I0
I518400
I1304051
tp222
tp223
F2.6
tp224
as(g2
Vf454ee96
p225
tp226
(lp227
(((I6
I2
I604800
I534985
tp228
F2.7
I4
(I0
I0
I1555200
I3095787
tp229
tp230
F2.7
tp231
as(g2
V3c2c9f8b
p232
tp233
(lp234
(((I2
I2
I432000
I435723
tp235
F2.7
I4
(I0
I0
I1382400
I3971279
tp236
tp237
F2.7
tp238
as(g2
Va08323c9
p239
tp240
(lp241
(((I5
I0
I0
I2507
tp242
F2.5
I4
(I0
I0
I518400
I525073
tp243
tp244
F2.5
tp245
a((g242
F2.5
I4
(I1
I0
I0
I160
tp246
tp247
F2.5
tp248
a((g242
F2.5
I4
(I2
I0
I0
I99645
tp249
tp250
F2.5
tp251
as(g2
Vc3c75d5b
p252
tp253
(lp254
(((I2
I2
I518400
I508429
tp255
F2.6
I4
(I0
I0
I1036800
I1134928
tp256
tp257
F2.6
tp258
as(g2
V68b542a6
p259
tp260
(lp261
(((I1
I1
I172800
I164867
tp262
F2.6
I4
(I0
I0
I604800
I584695
tp263
tp264
F2.6
tp265
as(g2
V8e290d81
p266
tp267
(lp268
(((I1
I2
I604800
I655231
tp269
F2.46
I4
(I0
I0
I1468800
I3971316
tp270
tp271
F2.46
tp272
as(g2
V35c470df
p273
tp274
(lp275
(((I17
I0
I0
I2612
tp276
F2.5
I4
(I0
I0
I172800
I168137
tp277
tp278
F2.5
tp279
a((g276
F2.5
I4
(I1
I0
I0
I775
tp280
tp281
F2.5
tp282
a(((I2
I1
I86400
I79986
tp283
F2.6
I4
(I0
I0
I604800
I1213171
tp284
tp285
F2.6
tp286
as(g2
V4b5fdcbf
p287
tp288
(lp289
(((I8
I2
I604800
I609929
tp290
F2.6
I4
(I0
I0
I1468800
I3458271
tp291
tp292
F2.6
tp293
as(g2
V7bb0884c
p294
tp295
(lp296
(((I1
I0
I0
I0
tp297
F2.5
I4
(I0
I0
I345600
I0
tp298
tp299
F2.5
tp300
a(((I1
I0
I0
I3712
tp301
F2.5
I4
(I0
I0
I86400
I85323
tp302
tp303
F2.5
tp304
a(((I1
I1
I172800
I135052
tp305
F2.6
I4
(I0
I0
I604800
I624648
tp306
tp307
F2.6
tp308
as(g2
V10cd7946
p309
tp310
(lp311
(((I1
I2
I432000
I424228
tp312
F2.6
I4
(I0
I0
I1209600
I1471227
tp313
tp314
F2.6
tp315
as(g2
V42da55b7
p316
tp317
(lp318
(((I1
I2
I518400
I496129
tp319
F2.7
I4
(I0
I0
I1468800
I3572393
tp320
tp321
F2.7
tp322
as(g2
V1e0e33e0
p323
tp324
(lp325
(((I7
I1
I86400
I59267
tp326
F2.6
I4
(I0
I0
I1555200
I3122308
tp327
tp328
F2.6
tp329
as(g2
V4d30115a
p330
tp331
(lp332
(((I7
I2
I518400
I495341
tp333
F2.6
I4
(I0
I0
I1036800
I1584937
tp334
tp335
F2.6
tp336
as(g2
Vbd1d3c61
p337
tp338
(lp339
(((I2
I2
I432000
I435828
tp340
F2.6
I4
(I0
I0
I864000
I849210
tp341
tp342
F2.6
tp343
a((g340
F2.6
I4
(I1
I0
I0
I225
tp344
tp345
F2.6
tp346
as(g2
V00dd09ee
p347
tp348
(lp349
(((I2
I1
I172800
I145089
tp350
F2.6
I4
(I0
I0
I604800
I1067729
tp351
tp352
F2.6
tp353
as(g2
V310337d7
p354
tp355
(lp356
(((I10
I1
I172800
I157623
tp357
F2.6
I4
(I0
I0
I518400
I495277
tp358
tp359
F2.6
tp360
a((g357
F2.6
I4
(I1
I0
I0
I73
tp361
tp362
F2.6
tp363
a((g357
F2.6
I4
(I2
I0
I0
I114693
tp364
tp365
F2.6
tp366
a((g357
F2.6
I4
(I3
I0
I0
I10205
tp367
tp368
F2.6
tp369
a((g357
F2.6
I4
(I4
I0
I0
I302
tp370
tp371
F2.6
tp372
a((g357
F2.6
I4
(I5
I0
I0
I711
tp373
tp374
F2.6
tp375
a((g357
F2.6
I4
(I0
I0
I172800
I145485
tp376
tp377
F2.6
tp378
a((g357
F2.6
I4
(I1
I0
I0
I445
tp379
tp380
F2.6
tp381
a((g357
F2.6
I4
(I0
I0
I172800
I177390
tp382
tp383
F2.6
tp384
a((g357
F2.6
I4
(I1
I0
I0
I202
tp385
tp386
F2.6
tp387
a((g357
F2.6
I4
(I0
I0
I172800
I883896
tp388
tp389
F2.6
tp390
as(g2
V66e1dd91
p391
tp392
(lp393
(((I27
I1
I86400
I78375
tp394
F2.6
I4
(I0
I0
I518400
I1067536
tp395
tp396
F2.6
tp397
as(g2
V2b1e9fec
p398
tp399
(lp400
(((I1
I2
I432000
I510970
tp401
F2.7
I4
(I0
I0
I1296000
I1895335
tp402
tp403
F2.7
tp404
as(g2
Vdc877ade
p405
tp406
(lp407
(((I2
I2
I518400
I524961
tp408
F2.7
I4
(I0
I0
I1468800
I3882343
tp409
tp410
F2.7
tp411
a((g408
F2.7
I4
(I1
I0
I0
I684376
tp412
tp413
F2.7
tp414
as(g2
V99890a6c
p415
tp416
(lp417
(((I2
I2
I604800
I600955
tp418
F2.7
I4
(I0
I0
I1728000
I3806620
tp419
tp420
F2.7
tp421
as(g2
V42d46279
p422
tp423
(lp424
(((I1
I2
I518400
I495906
tp425
F2.46
I4
(I0
I0
I1468800
I3572378
tp426
tp427
F2.46
tp428
as(g2
V06893595
p429
tp430
(lp431
(((I2
I1
I86400
I25502
tp432
F2.6
I4
(I0
I0
I604800
I941821
tp433
tp434
F2.6
tp435
as(g2
V05b73f5d
p436
tp437
(lp438
(((I3
I2
I604800
I609859
tp439
F2.7
I4
(I0
I0
I1296000
I1471853
tp440
tp441
F2.7
tp442
as(g2
V6bddf5ff
p443
tp444
(lp445
(((I2
I1
I86400
I25317
tp446
F2.6
I4
(I0
I0
I604800
I941895
tp447
tp448
F2.6
tp449
as(g2
Va5c816b8
p450
tp451
(lp452
(((I2
I1
I172800
I323939
tp453
F2.6
I4
(I0
I0
I1123200
I1585095
tp454
tp455
F2.46
tp456
as(g2
Vee7f2539
p457
tp458
(lp459
(((I1
I2
I604800
I610000
tp460
F2.7
I4
(I0
I0
I1468800
I3458275
tp461
tp462
F2.7
tp463
as(g2
V34f311ca
p464
tp465
(lp466
(((I2
I2
I518400
I515196
tp467
F2.7
I4
(I0
I0
I1641600
I3367562
tp468
tp469
F2.7
tp470
as(g2
V11d4ce86
p471
tp472
(lp473
(((I5
I1
I172800
I145211
tp474
F2.6
I4
(I0
I0
I432000
I984318
tp475
tp476
F2.6
tp477
a((g474
F2.6
I4
(I1
I0
I0
I2921956
tp478
tp479
F2.6
tp480
as(g2
V96f893b6
p481
tp482
(lp483
(((I3
I0
I0
I102
tp484
F2.5
I4
(I0
I0
I172800
I145526
tp485
tp486
F2.5
tp487
a((g484
F2.5
I4
(I1
I0
I0
I415
tp488
tp489
F2.5
tp490
a((g484
F2.5
I4
(I2
I0
I0
I888
tp491
tp492
F2.5
tp493
a(((I3
I2
I432000
I884795
tp494
F2.7
I4
(I0
I0
I2592000
I2921826
tp495
tp496
F2.7
tp497
as(g2
V6d983d2b
p498
tp499
(lp500
(((I2
I2
I518400
I495343
tp501
F2.6
I4
(I0
I0
I1123200
I1585116
tp502
tp503
F2.6
tp504
as(g2
V3473503f
p505
tp506
(lp507
(((I4
I0
I0
I208
tp508
F2.5
I4
(I0
I0
I432000
I450228
tp509
tp510
F2.5
tp511
a((g508
F2.5
I4
(I1
I0
I0
I397
tp512
tp513
F2.5
tp514
a(((I2
I1
I86400
I25643
tp515
F2.6
I4
(I0
I0
I604800
I941808
tp516
tp517
F2.6
tp518
as(g2
Vb69029e9
p519
tp520
(lp521
(((I1
I0
I0
I135
tp522
F2.5
I4
(I0
I0
I172800
I177937
tp523
tp524
F2.5
tp525
a(((I1
I2
I432000
I858481
tp526
F2.7
I4
(I0
I0
I2073600
I2237955
tp527
tp528
F2.7
tp529
as(g2
V2e7377a9
p530
tp531
(lp532
(((I1
I2
I518400
I495892
tp533
F2.7
I4
(I0
I0
I1555200
I3572501
tp534
tp535
F2.7
tp536
as(g2
Vd72298d0
p537
tp538
(lp539
(((I3
I1
I86400
I56785
tp540
F2.6
I4
(I0
I0
I604800
I1418312
tp541
tp542
F2.6
tp543
as(g2
Vee0f8dd5
p544
tp545
(lp546
(((I1
I0
I0
I220
tp547
F2.5
I4
(I0
I0
I86400
I166318
tp548
tp549
F2.5
tp550
as(g2
V2e1e62a2
p551
tp552
(lp553
(((I2
I1
I86400
I25636
tp554
F2.6
I4
(I0
I0
I518400
I858622
tp555
tp556
F2.6
tp557
a((g554
F2.6
I4
(I1
I0
I0
I2921844
tp558
tp559
F2.6
tp560
as(g2
Veec2bd6b
p561
tp562
(lp563
(((I1
I2
I604800
I646709
tp564
F2.7
I4
(I0
I0
I1382400
I1760851
tp565
tp566
F2.7
tp567
a((g564
F2.7
I4
(I1
I0
I0
I2670207
tp568
tp569
F2.7
tp570
as(g2
V3c71bf76
p571
tp572
(lp573
(((I7
I1
I86400
I66175
tp574
F2.6
I4
(I0
I0
I604800
I1146588
tp575
tp576
F2.6
tp577
as(g2
V92250c49
p578
tp579
(lp580
(((I1
I0
I0
I13626
tp581
F2.5
I4
(I0
I0
I1296000
I1471322
tp582
tp583
F2.5
tp584
as(g2
Vb8ef5fff
p585
tp586
(lp587
(((I1
I2
I432000
I408833
tp588
F2.7
I4
(I0
I0
I1209600
I1234646
tp589
tp590
F2.7
tp591
as(g2
V1ff371d1
p592
tp593
(lp594
(((I2
I2
I518400
I479637
tp595
F2.7
I4
(I0
I0
I1555200
I3746908
tp596
tp597
F2.7
tp598
as(g2
Vecdc7356
p599
tp600
(lp601
(((I18
I1
I86400
I57132
tp602
F2.6
I4
(I0
I0
I518400
I476674
tp603
tp604
F2.6
tp605
a(((I1
I0
I0
I921
tp606
F2.6
I4
(I0
I0
I604800
I2237517
tp607
tp608
F2.46
tp609
a((g606
F2.6
I4
(I1
I0
I0
I684713
tp610
tp611
F2.46
tp612
as(g2
V98b3d903
p613
tp614
(lp615
(((I1
I2
I604800
I607236
tp616
F2.7
I4
(I0
I0
I1728000
I3367479
tp617
tp618
F2.7
tp619
a((g616
F2.7
I4
(I1
I0
I0
I684115
tp620
tp621
F2.7
tp622
as(g2
Vf2e99617
p623
tp624
(lp625
(((I3
I2
I604800
I607271
tp626
F2.46
I4
(I0
I0
I1382400
I2081473
tp627
tp628
F2.46
tp629
as(g2
Va0ec37cb
p630
tp631
(lp632
(((I1
I2
I432000
I436996
tp633
F2.7
I4
(I0
I0
I1382400
I3630382
tp634
tp635
F2.7
tp636
as(g2
V27a24e81
p637
tp638
(lp639
(((I3
I1
I172800
I883833
tp640
F2.3
I4
(I0
I0
I604800
I2237453
tp641
tp642
F2.3
tp643
as(g2
Vadfa0528
p644
tp645
(lp646
(((I28
I0
I0
I102580
tp647
F2.5
I4
(I0
I0
I172800
I171545
tp648
tp649
F2.5
tp650
a(((I1
I1
I86400
I90168
tp651
F2.6
I4
(I0
I0
I518400
I1212987
tp652
tp653
F2.6
tp654
as(g2
V72fc08d4
p655
tp656
(lp657
(((I3
I1
I86400
I79720
tp658
F2.6
I4
(I0
I0
I518400
I1212978
tp659
tp660
F2.6
tp661
as(g2
Vfcedb4de
p662
tp663
(lp664
(((I2
I1
I86400
I105268
tp665
F2.6
I4
(I0
I0
I1382400
I3806285
tp666
tp667
F2.6
tp668
as(g2
V27c2bd53
p669
tp670
(lp671
(((I1
I2
I604800
I610238
tp672
F2.7
I4
(I0
I0
I1555200
I3458403
tp673
tp674
F2.7
tp675
as(g2
Vda99e3c8
p676
tp677
(lp678
(((I24
I2
I518400
I495845
tp679
F2.6
I4
(I0
I0
I1468800
I3572380
tp680
tp681
F2.6
tp682
as(g2
V77294e4c
p683
tp684
(lp685
(((I9
I0
I0
I107
tp686
F2.5
I4
(I0
I0
I172800
I145489
tp687
tp688
F2.5
tp689
a((g686
F2.5
I4
(I1
I0
I0
I299
tp690
tp691
F2.5
tp692
a(((I2
I1
I172800
I177775
tp693
F2.6
I4
(I0
I0
I518400
I967863
tp694
tp695
F2.6
tp696
as(g2
Vf3758137
p697
tp698
(lp699
(((I2
I2
I604800
I595982
tp700
F2.7
I4
(I0
I0
I1555200
I3630588
tp701
tp702
F2.7
tp703
a((g700
F2.7
I4
(I1
I0
I0
I684240
tp704
tp705
F2.7
tp706
as(g2
Vf8f228c6
p707
tp708
(lp709
(((I6
I2
I432000
I420069
tp710
F2.7
I4
(I0
I0
I1209600
I1819274
tp711
tp712
F2.7
tp713
as(g2
Ve17369eb
p714
tp715
(lp716
(((I3
I2
I604800
I609582
tp717
F2.6
I4
(I0
I0
I1814400
I3458471
tp718
tp719
F2.6
tp720
as(g2
Vdcbf37c3
p721
tp722
(lp723
(((I4
I2
I518400
I479580
tp724
F2.7
I4
(I0
I0
I1555200
I3746908
tp725
tp726
F2.7
tp727
as(g2
Va27ee15e
p728
tp729
(lp730
(((I5
I2
I518400
I505897
tp731
F2.7
I4
(I0
I0
I1382400
I3300503
tp732
tp733
F2.7
tp734
as(g2
Vdf6db57b
p735
tp736
(lp737
(((I30
I1
I86400
I59112
tp738
F2.6
I4
(I0
I0
I432000
I446365
tp739
tp740
F2.6
tp741
a((g738
F2.6
I4
(I1
I0
I0
I198
tp742
tp743
F2.6
tp744
a(((I2
I2
I604800
I1067698
tp745
F2.7
I4
(I0
I0
I2764800
I2838569
tp746
tp747
F2.7
tp748
as(g2
Vcdabc4e3
p749
tp750
(lp751
(((I2
I2
I604800
I600861
tp752
F2.6
I4
(I0
I0
I1296000
I1819336
tp753
tp754
F2.6
tp755
as(g2
V55250613
p756
tp757
(lp758
(((I2
I1
I86400
I58662
tp759
F2.6
I4
(I0
I0
I518400
I525161
tp760
tp761
F2.6
tp762
a((g759
F2.6
I4
(I1
I0
I0
I99565
tp763
tp764
F2.6
tp765
a(((I2
I1
I86400
I25677
tp766
F2.7
I4
(I0
I0
I432000
I858466
tp767
tp768
F2.7
tp769
a((g766
F2.7
I4
(I1
I0
I0
I2921976
tp770
tp771
F2.7
tp772
as(g2
Vc21dd9e0
p773
tp774
(lp775
(((I7
I1
I172800
I160374
tp776
F2.6
I4
(I0
I0
I604800
I1418281
tp777
tp778
F2.6
tp779
as(g2
Va9c66681
p780
tp781
(lp782
(((I1
I2
I604800
I646469
tp783
F2.7
I4
(I0
I0
I1814400
I3747044
tp784
tp785
F2.7
tp786
as(g2
Vc8d3610f
p787
tp788
(lp789
(((I1
I0
I0
I1084
tp790
F2.5
I4
(I0
I0
I86400
I90001
tp791
tp792
F2.5
tp793
a(((I1
I0
I0
I318
tp794
F2.5
I4
(I0
I0
I604800
I1067600
tp795
tp796
F2.5
tp797
as(g2
Vca274507
p798
tp799
(lp800
(((I1
I0
I0
I754
tp801
F2.5
I4
(I0
I0
I86400
I90322
tp802
tp803
F2.5
tp804
a(((I1
I1
I172800
I145190
tp805
F2.6
I4
(I0
I0
I432000
I984308
tp806
tp807
F2.6
tp808
as(g2
Va2465742
p809
tp810
(lp811
(((I2
I0
I0
I78
tp812
F2.5
I4
(I0
I0
I172800
I177832
tp813
tp814
F2.5
tp815
a((g812
F2.5
I4
(I0
I0
I604800
I941817
tp816
tp817
F2.5
tp818
a((g812
F2.5
I4
(I1
I0
I0
I2838705
tp819
tp820
F2.5
tp821
as(g2
V3acf4d43
p822
tp823
(lp824
(((I3
I2
I604800
I609858
tp825
F2.6
I4
(I0
I0
I1641600
I3458059
tp826
tp827
F2.6
tp828
as(g2
V2d9f31a7
p829
tp830
(lp831
(((I4
I0
I0
I96
tp832
F2.5
I4
(I0
I0
I172800
I324165
tp833
tp834
F2.5
tp835
a(((I1
I0
I0
I995
tp836
F2.5
I4
(I0
I0
I172800
I184703
tp837
tp838
F2.5
tp839
a((g836
F2.5
I4
(I0
I0
I1123200
I1134910
tp840
tp841
F2.36
tp842
as(g2
Vab741ef8
p843
tp844
(lp845
(((I2
I0
I0
I184
tp846
F2.5
I4
(I0
I0
I172800
I145021
tp847
tp848
F2.5
tp849
a((g846
F2.5
I4
(I1
I0
I0
I255
tp850
tp851
F2.5
tp852
a((g846
F2.5
I4
(I2
I0
I0
I99672
tp853
tp854
F2.5
tp855
a(((I3
I1
I86400
I25774
tp856
F2.6
I4
(I0
I0
I518400
I858583
tp857
tp858
F2.6
tp859
as(g2
V79c643a0
p860
tp861
(lp862
(((I11
I0
I0
I93
tp863
F2.5
I4
(I0
I0
I86400
I66180
tp864
tp865
F2.5
tp866
a((g863
F2.5
I4
(I1
I0
I0
I421
tp867
tp868
F2.5
tp869
a(((I2
I0
I0
I135
tp870
F2.5
I4
(I0
I0
I172800
I177836
tp871
tp872
F2.5
tp873
a(((I1
I1
I86400
I26103
tp874
F2.6
I4
(I0
I0
I604800
I941785
tp875
tp876
F2.6
tp877
as(g2
V501897e7
p878
tp879
(lp880
(((I2
I1
I172800
I270817
tp881
F2.6
I4
(I0
I0
I604800
I609858
tp882
tp883
F2.6
tp884
a((g881
F2.6
I4
(I1
I0
I0
I196
tp885
tp886
F2.6
tp887
a((g881
F2.6
I4
(I2
I0
I0
I10216
tp888
tp889
F2.6
tp890
a((g881
F2.6
I4
(I3
I0
I0
I206
tp891
tp892
F2.6
tp893
a(((I4
I1
I172800
I145521
tp894
F2.7
I4
(I0
I0
I518400
I1146278
tp895
tp896
F2.7
tp897
as(g2
V114a88d5
p898
tp899
(lp900
(((I2
I0
I0
I130
tp901
F2.5
I4
(I0
I0
I86400
I77245
tp902
tp903
F2.5
tp904
a((g901
F2.5
I4
(I1
I0
I0
I100009
tp905
tp906
F2.5
tp907
a(((I2
I0
I0
I77
tp908
F2.5
I4
(I0
I0
I172800
I884152
tp909
tp910
F2.5
tp911
as(g2
V9268703c
p912
tp913
(lp914
(((I1
I0
I0
I13536
tp915
F2.5
I4
(I0
I0
I604800
I582134
tp916
tp917
F2.5
tp918
a((g915
F2.5
I4
(I1
I0
I0
I175
tp919
tp920
F2.5
tp921
a((g915
F2.5
I4
(I0
I0
I518400
I967872
tp922
tp923
F2.5
tp924
as(g2
Vf155e953
p925
tp926
(lp927
(((I2
I2
I604800
I646619
tp928
F2.7
I4
(I0
I0
I1641600
I3746973
tp929
tp930
F2.7
tp931
as(g2
Va705aebd
p932
tp933
(lp934
(((I2
I0
I0
I74
tp935
F2.5
I4
(I0
I0
I432000
I435700
tp936
tp937
F2.5
tp938
as(g2
Ve70b0a03
p939
tp940
(lp941
(((I2
I2
I432000
I420057
tp942
F2.6
I4
(I0
I0
I1382400
I3806310
tp943
tp944
F2.6
tp945
as(g2
Vb7226af2
p946
tp947
(lp948
(((I3
I2
I518400
I476653
tp949
F2.7
I4
(I0
I0
I1468800
I3095875
tp950
tp951
F2.7
tp952
as(g2
V3d4e11d6
p953
tp954
(lp955
(((I2
I0
I0
I106
tp956
F2.5
I4
(I0
I0
I172800
I883799
tp957
tp958
F2.5
tp959
a((g956
F2.5
I4
(I1
I0
I0
I2921979
tp960
tp961
F2.5
tp962
as(g2
V58f104a8
p963
tp964
(lp965
(((I1
I2
I518400
I515327
tp966
F2.7
I4
(I0
I0
I1468800
I3367241
tp967
tp968
F2.7
tp969
as(g2
V49136a72
p970
tp971
(lp972
(((I2
I2
I432000
I401975
tp973
F2.7
I4
(I0
I0
I1382400
I1586560
tp974
tp975
F2.7
tp976
as(g2
V92ac8292
p977
tp978
(lp979
(((I2
I2
I604800
I609545
tp980
F2.6
I4
(I0
I0
I1641600
I3458398
tp981
tp982
F2.6
tp983
a((g980
F2.6
I4
(I1
I0
I0
I684100
tp984
tp985
F2.6
tp986
as(g2
Vf68b72d5
p987
tp988
(lp989
(((I22
I2
I518400
I495918
tp990
F2.7
I4
(I0
I0
I1209600
I1585245
tp991
tp992
F2.7
tp993
as(g2
V2b12c2a2
p994
tp995
(lp996
(((I2
I2
I604800
I968201
tp997
F2.7
I4
(I0
I0
I2592000
I2838390
tp998
tp999
F2.7
tp1000
as(g2
V4d7e7f2d
p1001
tp1002
(lp1003
(((I2
I2
I518400
I476670
tp1004
F2.7
I4
(I0
I0
I1555200
I3096005
tp1005
tp1006
F2.7
tp1007
as(g2
Vc7166d57
p1008
tp1009
(lp1010
(((I2
I1
I86400
I77235
tp1011
F2.6
I4
(I0
I0
I518400
I1067601
tp1012
tp1013
F2.6
tp1014
as(g2
Vd8f26e57
p1015
tp1016
(lp1017
(((I1
I0
I0
I472
tp1018
F2.5
I4
(I0
I0
I86400
I157529
tp1019
tp1020
F2.5
tp1021
a(((I1
I2
I518400
I515284
tp1022
F2.7
I4
(I0
I0
I1123200
I1379971
tp1023
tp1024
F2.7
tp1025
as(g2
V6240cb3f
p1026
tp1027
(lp1028
(((I2
I1
I86400
I80009
tp1029
F2.6
I4
(I0
I0
I518400
I516107
tp1030
tp1031
F2.6
tp1032
a((g1029
F2.6
I4
(I1
I0
I0
I613
tp1033
tp1034
F2.6
tp1035
a((g1029
F2.6
I4
(I2
I0
I0
I10414
tp1036
tp1037
F2.6
tp1038
a((g1029
F2.6
I4
(I3
I0
I0
I199
tp1039
tp1040
F2.6
tp1041
a((g1029
F2.6
I4
(I0
I0
I86400
I78842
tp1042
tp1043
F2.6
tp1044
a(((I1
I0
I0
I395
tp1045
F2.6
I4
(I0
I0
I518400
I1067371
tp1046
tp1047
F2.6
tp1048
as(g2
V3a9ec69d
p1049
tp1050
(lp1051
(((I3
I0
I0
I69
tp1052
F2.5
I4
(I0
I0
I172800
I324623
tp1053
tp1054
F2.5
tp1055
as(g2
V4e5f1c78
p1056
tp1057
(lp1058
(((I2
I2
I432000
I424011
tp1059
F2.7
I4
(I0
I0
I1036800
I1470987
tp1060
tp1061
F2.7
tp1062
as(g2
V72508713
p1063
tp1064
(lp1065
(((I2
I0
I0
I13515
tp1066
F2.5
I4
(I0
I0
I86400
I166354
tp1067
tp1068
F2.5
tp1069
a((g1066
F2.5
I4
(I1
I0
I0
I518
tp1070
tp1071
F2.5
tp1072
a((g1066
F2.5
I4
(I2
I0
I0
I333
tp1073
tp1074
F2.5
tp1075
a((g1066
F2.5
I4
(I0
I0
I86400
I156882
tp1076
tp1077
F2.5
tp1078
a((g1066
F2.5
I4
(I0
I0
I86400
I83042
tp1079
tp1080
F2.5
tp1081
a(((I1
I2
I604800
I582082
tp1082
F2.7
I4
(I0
I0
I1296000
I1313435
tp1083
tp1084
F2.7
tp1085
as(g10
V13a60f98
p1086
tp1087
(lp1088
(((I1
I4
I1123200
I1381985
tp1089
F1.9
I4
(I0
I0
I2678400
I2587738
tp1090
tp1091
F1.9
tp1092
a((g1089
F1.9
I4
(I0
I0
I86400
I103951
tp1093
tp1094
F1.9
tp1095
a((g1089
F1.9
I4
(I0
I0
I172800
I298784
tp1096
tp1097
F1.9
tp1098
as(g2
V34efdb42
p1099
tp1100
(lp1101
(((I2
I2
I604800
I646581
tp1102
F2.7
I4
(I0
I0
I1814400
I3747040
tp1103
tp1104
F2.7
tp1105
as(g2
V3963edc0
p1106
tp1107
(lp1108
(((I15
I2
I518400
I495827
tp1109
F2.6
I4
(I0
I0
I1555200
I3572504
tp1110
tp1111
F2.6
tp1112
as(g2
Va93bdf72
p1113
tp1114
(lp1115
(((I3
I0
I0
I148
tp1116
F2.5
I4
(I0
I0
I86400
I79652
tp1117
tp1118
F2.5
tp1119
a((g1116
F2.5
I4
(I1
I0
I0
I375
tp1120
tp1121
F2.5
tp1122
a((g1116
F2.5
I4
(I2
I0
I0
I93
tp1123
tp1124
F2.5
tp1125
a((g1116
F2.5
I4
(I3
I0
I0
I66540
tp1126
tp1127
F2.5
tp1128
a((g1116
F2.5
I4
(I4
I0
I0
I211
tp1129
tp1130
F2.5
tp1131
a((g1116
F2.5
I4
(I0
I0
I86400
I77243
tp1132
tp1133
F2.5
tp1134
a((g1116
F2.5
I4
(I1
I0
I0
I99811
tp1135
tp1136
F2.5
tp1137
a((g1116
F2.5
I4
(I2
I0
I0
I445
tp1138
tp1139
F2.5
tp1140
a(((I3
I0
I0
I277
tp1141
F2.5
I4
(I0
I0
I86400
I25387
tp1142
tp1143
F2.5
tp1144
a((g1141
F2.5
I4
(I1
I0
I0
I1068
tp1145
tp1146
F2.5
tp1147
a(((I2
I1
I86400
I790614
tp1148
F2.6
I4
(I0
I0
I432000
I2237438
tp1149
tp1150
F2.6
tp1151
as(g2
V25ec566d
p1152
tp1153
(lp1154
(((I2
I2
I432000
I510965
tp1155
F2.7
I4
(I0
I0
I1382400
I3882217
tp1156
tp1157
F2.7
tp1158
as(g2
V468fa72e
p1159
tp1160
(lp1161
(((I2
I0
I0
I0
tp1162
F2.5
I4
(I0
I0
I172800
I92265
tp1163
tp1164
F2.5
tp1165
a((g1162
F2.5
I4
(I1
I0
I0
I168
tp1166
tp1167
F2.5
tp1168
a(((I2
I2
I604800
I610056
tp1169
F2.7
I4
(I0
I0
I1814400
I3458633
tp1170
tp1171
F2.7
tp1172
as(g2
V79262c4d
p1173
tp1174
(lp1175
(((I33
I0
I0
I360
tp1176
F2.5
I4
(I0
I0
I172800
I134677
tp1177
tp1178
F2.5
tp1179
a(((I1
I2
I518400
I476621
tp1180
F2.7
I4
(I0
I0
I1123200
I3095574
tp1181
tp1182
F2.7
tp1183
as(g2
V8dc5bb51
p1184
tp1185
(lp1186
(((I5
I0
I0
I232
tp1187
F2.5
I4
(I0
I0
I86400
I25413
tp1188
tp1189
F2.5
tp1190
a((g1187
F2.5
I4
(I1
I0
I0
I996
tp1191
tp1192
F2.5
tp1193
a((g1187
F2.5
I4
(I2
I0
I0
I66375
tp1194
tp1195
F2.5
tp1196
a(((I3
I0
I0
I304
tp1197
F2.5
I4
(I0
I0
I172800
I790370
tp1198
tp1199
F2.5
tp1200
as(g2
V92ee398c
p1201
tp1202
(lp1203
(((I2
I0
I0
I0
tp1204
F2.5
I4
(I0
I0
I86400
I125593
tp1205
tp1206
F2.5
tp1207
as(g2
V4fc408f6
p1208
tp1209
(lp1210
(((I2
I2
I518400
I528497
tp1211
F2.7
I4
(I0
I0
I1468800
I3971425
tp1212
tp1213
F2.7
tp1214
as(g2
Vcfa82218
p1215
tp1216
(lp1217
(((I1
I1
I172800
I172252
tp1218
F2.6
I4
(I0
I0
I432000
I424215
tp1219
tp1220
F2.6
tp1221
a((g1218
F2.6
I4
(I1
I0
I0
I687
tp1222
tp1223
F2.6
tp1224
a((g1218
F2.6
I4
(I2
I0
I0
I10337
tp1225
tp1226
F2.6
tp1227
a((g1218
F2.6
I4
(I3
I0
I0
I268
tp1228
tp1229
F2.6
tp1230
a((g1218
F2.6
I4
(I4
I0
I0
I779
tp1231
tp1232
F2.6
tp1233
a(((I5
I1
I86400
I78744
tp1234
F2.7
I4
(I0
I0
I432000
I1129899
tp1235
tp1236
F2.7
tp1237
as(g2
Vbf3475cf
p1238
tp1239
(lp1240
(((I2
I0
I0
I66296
tp1241
F2.5
I4
(I0
I0
I86400
I790727
tp1242
tp1243
F2.5
tp1244
as(g2
V260079de
p1245
tp1246
(lp1247
(((I5
I1
I86400
I80016
tp1248
F2.6
I4
(I0
I0
I604800
I1213208
tp1249
tp1250
F2.6
tp1251
as(g2
V6459f1d0
p1252
tp1253
(lp1254
(((I1
I1
I86400
I113255
tp1255
F2.6
I4
(I0
I0
I518400
I1304226
tp1256
tp1257
F2.6
tp1258
as(g2
Vcb84684b
p1259
tp1260
(lp1261
(((I16
I2
I432000
I420113
tp1262
F2.6
I4
(I0
I0
I864000
I1652409
tp1263
tp1264
F2.6
tp1265
as(g2
V9bb08773
p1266
tp1267
(lp1268
(((I6
I0
I0
I75
tp1269
F2.34
I4
(I0
I0
I172800
I172092
tp1270
tp1271
F2.34
tp1272
a(((I1
I2
I432000
I439139
tp1273
F2.54
I4
(I0
I0
I1036800
I1379893
tp1274
tp1275
F2.54
tp1276
a((g1273
F2.54
I4
(I1
I0
I0
I2671801
tp1277
tp1278
F2.54
tp1279
as(g2
Vca6bff96
p1280
tp1281
(lp1282
(((I1
I0
I0
I744
tp1283
F2.5
I4
(I0
I0
I172800
I156972
tp1284
tp1285
F2.5
tp1286
a((g1283
F2.5
I4
(I0
I0
I604800
I1067694
tp1287
tp1288
F2.5
tp1289
a((g1283
F2.5
I4
(I1
I0
I0
I2838622
tp1290
tp1291
F2.5
tp1292
as(g2
Vccd73f49
p1293
tp1294
(lp1295
(((I1
I1
I432000
I883903
tp1296
F2.6
I4
(I0
I0
I432000
I2237036
tp1297
tp1298
F2.6
tp1299
a((g1296
F2.6
I4
(I1
I0
I0
I684854
tp1300
tp1301
F2.6
tp1302
as(g2
V42f5a7fb
p1303
tp1304
(lp1305
(((I23
I1
I172800
I157996
tp1306
F2.6
I4
(I0
I0
I432000
I437630
tp1307
tp1308
F2.6
tp1309
a((g1306
F2.6
I4
(I1
I0
I0
I589
tp1310
tp1311
F2.6
tp1312
a((g1306
F2.6
I4
(I2
I0
I0
I217
tp1313
tp1314
F2.6
tp1315
a((g1306
F2.6
I4
(I0
I0
I86400
I56962
tp1316
tp1317
F2.6
tp1318
a(((I1
I2
I432000
I362739
tp1319
F2.8
I4
(I0
I0
I1209600
I3095640
tp1320
tp1321
F2.8
tp1322
as(g10
V05bd15ac
p1323
tp1324
(lp1325
(((I1
I11
I1555200
I1650390
tp1326
F2.29
I4
(I0
I0
I3801600
I3967947
tp1327
tp1328
F2.29
tp1329
as(g2
Vd3b8e285
p1330
tp1331
(lp1332
(((I2
I2
I432000
I558987
tp1333
F2.44
I4
(I0
I0
I950400
I945294
tp1334
tp1335
F2.44
tp1336
a((g1333
F2.44
I4
(I0
I0
I604800
I941844
tp1337
tp1338
F2.44
tp1339
as(g2
Va1e6fec0
p1340
tp1341
(lp1342
(((I2
I0
I0
I0
tp1343
F2.5
I4
(I0
I0
I172800
I106329
tp1344
tp1345
F2.5
tp1346
a((g1343
F2.5
I4
(I1
I0
I0
I369
tp1347
tp1348
F2.5
tp1349
a(((I2
I0
I0
I243
tp1350
F2.5
I4
(I0
I0
I86400
I166083
tp1351
tp1352
F2.5
tp1353
as(g2
V3ee4291a
p1354
tp1355
(lp1356
(((I1
I0
I0
I348
tp1357
F2.5
I4
(I0
I0
I172800
I157694
tp1358
tp1359
F2.5
tp1360
a(((I1
I0
I0
I1104
tp1361
F2.5
I4
(I0
I0
I172800
I184712
tp1362
tp1363
F2.5
tp1364
a((g1361
F2.5
I4
(I0
I0
I1555200
I3122309
tp1365
tp1366
F2.5
tp1367
as(g2
Vf55aed44
p1368
tp1369
(lp1370
(((I3
I2
I518400
I1146355
tp1371
F2.7
I4
(I0
I0
I2851200
I2838665
tp1372
tp1373
F2.7
tp1374
as(g2
Vaa72167a
p1375
tp1376
(lp1377
(((I2
I1
I172800
I175233
tp1378
F2.6
I4
(I0
I0
I432000
I408821
tp1379
tp1380
F2.6
tp1381
a((g1378
F2.6
I4
(I1
I0
I0
I99723
tp1382
tp1383
F2.6
tp1384
a((g1378
F2.6
I4
(I0
I0
I86400
I25623
tp1385
tp1386
F2.6
tp1387
a((g1378
F2.6
I4
(I1
I0
I0
I1115
tp1388
tp1389
F2.6
tp1390
a(((I2
I0
I0
I66270
tp1391
F2.6
I4
(I0
I0
I172800
I790787
tp1392
tp1393
F2.6
tp1394
as(g2
V1a8e36de
p1395
tp1396
(lp1397
(((I1
I1
I518400
I0
tp1398
F2.6
I4
(I0
I0
I604800
I584588
tp1399
tp1400
F2.6
tp1401
as(g2
V7dbc52db
p1402
tp1403
(lp1404
(((I5
I1
I172800
I790602
tp1405
F2.6
I4
(I0
I0
I604800
I2237311
tp1406
tp1407
F2.6
tp1408
as(g2
V02f69375
p1409
tp1410
(lp1411
(((I2
I2
I604800
I655194
tp1412
F2.7
I4
(I0
I0
I1296000
I1984310
tp1413
tp1414
F2.7
tp1415
as(g2
Vb5390c5b
p1416
tp1417
(lp1418
(((I1
I2
I604800
I646485
tp1419
F2.7
I4
(I0
I0
I1814400
I3747042
tp1420
tp1421
F2.7
tp1422
as(g2
V0978021f
p1423
tp1424
(lp1425
(((I4
I0
I0
I177
tp1426
F2.5
I4
(I0
I0
I86400
I156705
tp1427
tp1428
F2.5
tp1429
a(((I1
I0
I0
I13796
tp1430
F2.5
I4
(I0
I0
I432000
I424199
tp1431
tp1432
F2.5
tp1433
a((g1430
F2.5
I4
(I1
I0
I0
I667
tp1434
tp1435
F2.5
tp1436
a(((I2
I1
I172800
I146524
tp1437
F2.6
I4
(I0
I0
I432000
I1063195
tp1438
tp1439
F2.6
tp1440
as(g2
V2a71060c
p1441
tp1442
(lp1443
(((I1
I2
I604800
I610062
tp1444
F2.7
I4
(I0
I0
I1555200
I3458401
tp1445
tp1446
F2.7
tp1447
as(g2
V02bca045
p1448
tp1449
(lp1450
(((I1
I2
I518400
I496076
tp1451
F2.6
I4
(I0
I0
I1555200
I3572520
tp1452
tp1453
F2.6
tp1454
as(g2
V410efe5e
p1455
tp1456
(lp1457
(((I5
I0
I0
I265
tp1458
F2.5
I4
(I0
I0
I86400
I58949
tp1459
tp1460
F2.5
tp1461
as(g2
Vffeb1541
p1462
tp1463
(lp1464
(((I7
I2
I518400
I495786
tp1465
F2.6
I4
(I0
I0
I1296000
I1585411
tp1466
tp1467
F2.6
tp1468
a((g1465
F2.6
I4
(I1
I0
I0
I2671335
tp1469
tp1470
F2.6
tp1471
as(g2
Vae30f2db
p1472
tp1473
(lp1474
(((I8
I1
I86400
I25620
tp1475
F2.6
I4
(I0
I0
I604800
I941865
tp1476
tp1477
F2.6
tp1478
as(g2
Ve8a74c25
p1479
tp1480
(lp1481
(((I2
I2
I432000
I439142
tp1482
F2.7
I4
(I0
I0
I1209600
I1380142
tp1483
tp1484
F2.7
tp1485
as(g2
V460d2662
p1486
tp1487
(lp1488
(((I4
I1
I86400
I72528
tp1489
F2.46
I4
(I0
I0
I604800
I584731
tp1490
tp1491
F2.46
tp1492
a((g1489
F2.46
I4
(I0
I0
I86400
I26123
tp1493
tp1494
F2.46
tp1495
a((g1489
F2.46
I4
(I1
I0
I0
I1099
tp1496
tp1497
F2.46
tp1498
a((g1489
F2.46
I4
(I0
I0
I172800
I790686
tp1499
tp1500
F2.46
tp1501
a((g1489
F2.46
I4
(I1
I0
I0
I2922270
tp1502
tp1503
F2.46
tp1504
as(g2
V24552003
p1505
tp1506
(lp1507
(((I1
I2
I518400
I476667
tp1508
F2.7
I4
(I0
I0
I1641600
I3096060
tp1509
tp1510
F2.7
tp1511
as(g2
Vd0014b94
p1512
tp1513
(lp1514
(((I2
I2
I518400
I508415
tp1515
F2.6
I4
(I0
I0
I1296000
I3122033
tp1516
tp1517
F2.6
tp1518
a((g1515
F2.6
I4
(I1
I0
I0
I684645
tp1519
tp1520
F2.6
tp1521
as(g2
Vf1e9b408
p1522
tp1523
(lp1524
(((I5
I0
I0
I157889
tp1525
F2.5
I4
(I0
I0
I604800
I582078
tp1526
tp1527
F2.5
tp1528
a((g1525
F2.5
I4
(I1
I0
I0
I196
tp1529
tp1530
F2.5
tp1531
a((g1525
F2.5
I4
(I0
I0
I86400
I78166
tp1532
tp1533
F2.5
tp1534
a((g1525
F2.5
I4
(I1
I0
I0
I100025
tp1535
tp1536
F2.5
tp1537
a(((I2
I1
I86400
I25644
tp1538
F2.6
I4
(I0
I0
I518400
I858580
tp1539
tp1540
F2.6
tp1541
a((g1538
F2.6
I4
(I1
I0
I0
I2921864
tp1542
tp1543
F2.6
tp1544
as(g2
Va190fd8c
p1545
tp1546
(lp1547
(((I4
I2
I518400
I479579
tp1548
F2.7
I4
(I0
I0
I1382400
I3746647
tp1549
tp1550
F2.7
tp1551
a((g1548
F2.7
I4
(I1
I0
I0
I684424
tp1552
tp1553
F2.7
tp1554
as(g2
V84b27568
p1555
tp1556
(lp1557
(((I6
I1
I172800
I160183
tp1558
F2.6
I4
(I0
I0
I1209600
I3122023
tp1559
tp1560
F2.6
tp1561
as(g10
V6a5678ec
p1562
tp1563
(lp1564
(((I1
I13
I518400
I558743
tp1565
F2.28
I4
(I0
I0
I3024000
I2991098
tp1566
tp1567
F2.14
tp1568
as(g2
Vddeff5b2
p1569
tp1570
(lp1571
(((I5
I0
I0
I203
tp1572
F2.5
I4
(I0
I0
I86400
I156972
tp1573
tp1574
F2.5
tp1575
a(((I1
I0
I0
I13698
tp1576
F2.5
I4
(I0
I0
I518400
I515305
tp1577
tp1578
F2.5
tp1579
a(((I1
I2
I432000
I984352
tp1580
F2.6
I4
(I0
I0
I2332800
I2921788
tp1581
tp1582
F2.6
tp1583
as(g2
V0e810893
p1584
tp1585
(lp1586
(((I3
I1
I86400
I77241
tp1587
F2.6
I4
(I0
I0
I604800
I1067698
tp1588
tp1589
F2.6
tp1590
as(g2
V3043df1e
p1591
tp1592
(lp1593
(((I3
I2
I432000
I1063200
tp1594
F2.7
I4
(I0
I0
I2678400
I2921817
tp1595
tp1596
F2.7
tp1597
as(g10
V279c8d64
p1598
tp1599
(lp1600
(((I1
I3
I86400
I2555
tp1601
F2.26
I4
(I0
I0
I2764800
I2751458
tp1602
tp1603
F1.96
tp1604
as(g2
V7c047dd4
p1605
tp1606
(lp1607
(((I1
I2
I518400
I587064
tp1608
F2.7
I4
(I0
I0
I1468800
I3806333
tp1609
tp1610
F2.7
tp1611
a((g1608
F2.7
I4
(I1
I0
I0
I684384
tp1612
tp1613
F2.7
tp1614
as(g2
Vcc2470c6
p1615
tp1616
(lp1617
(((I1
I1
I345600
I347358
tp1618
F2.6
I4
(I0
I0
I604800
I1304235
tp1619
tp1620
F2.6
tp1621
as(g2
V46f337f2
p1622
tp1623
(lp1624
(((I2
I1
I172800
I204540
tp1625
F2.6
I4
(I0
I0
I432000
I1129849
tp1626
tp1627
F2.6
tp1628
a((g1625
F2.6
I4
(I1
I0
I0
I2921840
tp1629
tp1630
F2.6
tp1631
as(g10
Vd6888d89
p1632
tp1633
(lp1634
(((I1
I3
I691200
I687647
tp1635
F2.09
I4
(I0
I0
I2419200
I2422338
tp1636
tp1637
F2.09
tp1638
as(g10
V7e6caee9
p1639
tp1640
(lp1641
(((I1
I4
I1728000
I1492992
tp1642
F2.16
I4
(I0
I0
I1900800
I1874264
tp1643
tp1644
F2.16
tp1645
as(g2
Vef3c4a8d
p1646
tp1647
(lp1648
(((I4
I2
I604800
I600979
tp1649
F2.6
I4
(I0
I0
I1555200
I3806444
tp1650
tp1651
F2.6
tp1652
as(g2
Vdc849c9e
p1653
tp1654
(lp1655
(((I6
I0
I0
I489
tp1656
F2.5
I4
(I0
I0
I604800
I584745
tp1657
tp1658
F2.5
tp1659
a((g1656
F2.5
I4
(I1
I0
I0
I99559
tp1660
tp1661
F2.5
tp1662
a((g1656
F2.5
I4
(I0
I0
I172800
I883962
tp1663
tp1664
F2.5
tp1665
as(g2
Vcc1b97c8
p1666
tp1667
(lp1668
(((I1
I2
I432000
I450152
tp1669
F2.7
I4
(I0
I0
I1036800
I1134947
tp1670
tp1671
F2.7
tp1672
as(g2
V83dfdfe3
p1673
tp1674
(lp1675
(((I4
I0
I0
I65
tp1676
F2.5
I4
(I0
I0
I86400
I156697
tp1677
tp1678
F2.5
tp1679
a((g1676
F2.5
I4
(I1
I0
I0
I13797
tp1680
tp1681
F2.5
tp1682
a((g1676
F2.5
I4
(I0
I0
I604800
I582083
tp1683
tp1684
F2.5
tp1685
a((g1676
F2.5
I4
(I1
I0
I0
I88
tp1686
tp1687
F2.5
tp1688
a((g1676
F2.5
I4
(I0
I0
I172800
I177734
tp1689
tp1690
F2.5
tp1691
a(((I1
I2
I518400
I858619
tp1692
F2.7
I4
(I0
I0
I2332800
I2921673
tp1693
tp1694
F2.7
tp1695
as(g2
Vd983b578
p1696
tp1697
(lp1698
(((I2
I2
I432000
I439138
tp1699
F2.7
I4
(I0
I0
I950400
I1379845
tp1700
tp1701
F2.7
tp1702
as(g2
V717c27bb
p1703
tp1704
(lp1705
(((I4
I1
I86400
I105062
tp1706
F2.6
I4
(I0
I0
I604800
I595894
tp1707
tp1708
F2.6
tp1709
as(g2
Vd5416527
p1710
tp1711
(lp1712
(((I7
I0
I0
I191
tp1713
F2.5
I4
(I0
I0
I86400
I790140
tp1714
tp1715
F2.5
tp1716
a((g1713
F2.5
I4
(I1
I0
I0
I2922266
tp1717
tp1718
F2.5
tp1719
as(g2
Vb01155ab
p1720
tp1721
(lp1722
(((I1
I1
I432000
I0
tp1723
F2.6
I4
(I0
I0
I604800
I604248
tp1724
tp1725
F2.6
tp1726
as(g2
Ved209343
p1727
tp1728
(lp1729
(((I3
I2
I604800
I607223
tp1730
F2.6
I4
(I0
I0
I1814400
I4067663
tp1731
tp1732
F2.6
tp1733
as(g2
Va68103f4
p1734
tp1735
(lp1736
(((I1
I0
I0
I862
tp1737
F2.5
I4
(I0
I0
I604800
I1213179
tp1738
tp1739
F2.5
tp1740
a((g1737
F2.5
I4
(I1
I0
I0
I2838624
tp1741
tp1742
F2.5
tp1743
as(g2
Vef2d1a70
p1744
tp1745
(lp1746
(((I2
I0
I0
I110
tp1747
F2.5
I4
(I0
I0
I518400
I2237252
tp1748
tp1749
F2.5
tp1750
as(g2
V51e3b4fb
p1751
tp1752
(lp1753
(((I3
I0
I0
I222
tp1754
F2.5
I4
(I0
I0
I432000
I437139
tp1755
tp1756
F2.5
tp1757
a((g1754
F2.5
I4
(I1
I0
I0
I614
tp1758
tp1759
F2.5
tp1760
a((g1754
F2.5
I4
(I0
I0
I172800
I171078
tp1761
tp1762
F2.5
tp1763
a(((I1
I1
I86400
I90179
tp1764
F2.6
I4
(I0
I0
I604800
I1213192
tp1765
tp1766
F2.6
tp1767
as(g2
V7f6c16dc
p1768
tp1769
(lp1770
(((I1
I2
I604800
I646685
tp1771
F2.7
I4
(I0
I0
I1296000
I1759688
tp1772
tp1773
F2.7
tp1774
a((g1771
F2.7
I4
(I1
I0
I0
I2671352
tp1775
tp1776
F2.7
tp1777
as(g2
V1e3046b8
p1778
tp1779
(lp1780
(((I2
I0
I0
I67066
tp1781
F2.5
I4
(I0
I0
I172800
I790805
tp1782
tp1783
F2.5
tp1784
as(g2
V8ca20b99
p1785
tp1786
(lp1787
(((I2
I1
I172800
I134776
tp1788
F2.6
I4
(I0
I0
I518400
I525070
tp1789
tp1790
F2.6
tp1791
as(g2
V4eb9aa10
p1792
tp1793
(lp1794
(((I4
I0
I0
I126
tp1795
F2.5
I4
(I0
I0
I86400
I101976
tp1796
tp1797
F2.5
tp1798
a((g1795
F2.5
I4
(I1
I0
I0
I800
tp1799
tp1800
F2.5
tp1801
a((g1795
F2.5
I4
(I2
I0
I0
I125
tp1802
tp1803
F2.5
tp1804
a(((I3
I2
I518400
I476648
tp1805
F2.7
I4
(I0
I0
I1209600
I3095595
tp1806
tp1807
F2.7
tp1808
as(g2
V71d72243
p1809
tp1810
(lp1811
(((I2
I1
I86400
I113138
tp1812
F2.6
I4
(I0
I0
I604800
I1304472
tp1813
tp1814
F2.6
tp1815
as(g2
Va6e0c849
p1816
tp1817
(lp1818
(((I1
I2
I432000
I432477
tp1819
F2.6
I4
(I0
I0
I864000
I845792
tp1820
tp1821
F2.6
tp1822
a((g1819
F2.6
I4
(I1
I0
I0
I82
tp1823
tp1824
F2.6
tp1825
a(((I2
I1
I172800
I884145
tp1826
F2.7
I4
(I0
I0
I518400
I2237403
tp1827
tp1828
F2.7
tp1829
as(g2
Vffa8a8bf
p1830
tp1831
(lp1832
(((I16
I0
I0
I309
tp1833
F2.5
I4
(I0
I0
I172800
I884142
tp1834
tp1835
F2.5
tp1836
as(g2
V334ac3af
p1837
tp1838
(lp1839
(((I1
I1
I345600
I883723
tp1840
F2.6
I4
(I0
I0
I518400
I684500
tp1841
tp1842
F2.46
tp1843
as(g2
V4ca25f7a
p1844
tp1845
(lp1846
(((I2
I2
I518400
I495842
tp1847
F2.6
I4
(I0
I0
I1296000
I1585363
tp1848
tp1849
F2.6
tp1850
as(g2
V5f498fbb
p1851
tp1852
(lp1853
(((I1
I2
I432000
I450152
tp1854
F2.7
I4
(I0
I0
I1036800
I1134927
tp1855
tp1856
F2.7
tp1857
as(g2
V662e3be6
p1858
tp1859
(lp1860
(((I6
I2
I432000
I424179
tp1861
F2.6
I4
(I0
I0
I1296000
I1472468
tp1862
tp1863
F2.6
tp1864
as(g2
V1d8bd7eb
p1865
tp1866
(lp1867
(((I8
I0
I0
I170370
tp1868
F2.5
I4
(I0
I0
I172800
I172262
tp1869
tp1870
F2.5
tp1871
a((g1868
F2.5
I4
(I1
I0
I0
I567
tp1872
tp1873
F2.5
tp1874
a((g1868
F2.5
I4
(I2
I0
I0
I368
tp1875
tp1876
F2.5
tp1877
a((g1868
F2.5
I4
(I3
I0
I0
I2617
tp1878
tp1879
F2.5
tp1880
a((g1868
F2.5
I4
(I4
I0
I0
I149
tp1881
tp1882
F2.5
tp1883
a((g1868
F2.5
I4
(I5
I0
I0
I118
tp1884
tp1885
F2.5
tp1886
a((g1868
F2.5
I4
(I6
I0
I0
I72527
tp1887
tp1888
F2.5
tp1889
a((g1868
F2.5
I4
(I7
I0
I0
I262
tp1890
tp1891
F2.5
tp1892
a((g1868
F2.5
I4
(I8
I0
I0
I234
tp1893
tp1894
F2.5
tp1895
a((g1868
F2.5
I4
(I9
I0
I0
I58981
tp1896
tp1897
F2.5
tp1898
a((g1868
F2.5
I4
(I10
I0
I0
I507
tp1899
tp1900
F2.5
tp1901
a((g1868
F2.5
I4
(I0
I0
I172800
I160230
tp1902
tp1903
F2.5
tp1904
a((g1868
F2.5
I4
(I1
I0
I0
I507
tp1905
tp1906
F2.5
tp1907
a((g1868
F2.5
I4
(I2
I0
I0
I114202
tp1908
tp1909
F2.5
tp1910
a(((I3
I1
I86400
I79962
tp1911
F2.6
I4
(I0
I0
I604800
I1213186
tp1912
tp1913
F2.6
tp1914
as(g2
V24162aa1
p1915
tp1916
(lp1917
(((I3
I0
I0
I88
tp1918
F2.5
I4
(I0
I0
I172800
I131923
tp1919
tp1920
F2.5
tp1921
a((g1918
F2.5
I4
(I1
I0
I0
I13623
tp1922
tp1923
F2.5
tp1924
a((g1918
F2.5
I4
(I2
I0
I0
I294
tp1925
tp1926
F2.5
tp1927
a((g1918
F2.5
I4
(I3
I0
I0
I189
tp1928
tp1929
F2.5
tp1930
a((g1918
F2.5
I4
(I4
I0
I0
I109
tp1931
tp1932
F2.5
tp1933
a((g1918
F2.5
I4
(I5
I0
I0
I102661
tp1934
tp1935
F2.5
tp1936
a((g1918
F2.5
I4
(I6
I0
I0
I285
tp1937
tp1938
F2.5
tp1939
a(((I7
I0
I0
I115
tp1940
F2.5
I4
(I0
I0
I172800
I170889
tp1941
tp1942
F2.5
tp1943
a(((I1
I0
I0
I922
tp1944
F2.5
I4
(I0
I0
I172800
I156863
tp1945
tp1946
F2.5
tp1947
a((g1944
F2.5
I4
(I1
I0
I0
I364
tp1948
tp1949
F2.5
tp1950
a((g1944
F2.5
I4
(I2
I0
I0
I229
tp1951
tp1952
F2.5
tp1953
a(((I3
I1
I86400
I77270
tp1954
F2.6
I4
(I0
I0
I604800
I1067695
tp1955
tp1956
F2.6
tp1957
as(g2
V1948dbeb
p1958
tp1959
(lp1960
(((I2
I0
I0
I105
tp1961
F2.5
I4
(I0
I0
I86400
I102111
tp1962
tp1963
F2.5
tp1964
a(((I1
I1
I172800
I171221
tp1965
F2.6
I4
(I0
I0
I604800
I1304418
tp1966
tp1967
F2.6
tp1968
as(g2
V15496bc1
p1969
tp1970
(lp1971
(((I2
I0
I0
I66273
tp1972
F2.5
I4
(I0
I0
I172800
I790781
tp1973
tp1974
F2.5
tp1975
as(g2
Vf0c8d90f
p1976
tp1977
(lp1978
(((I2
I2
I432000
I437925
tp1979
F2.6
I4
(I0
I0
I1296000
I1643594
tp1980
tp1981
F2.6
tp1982
as(g2
V61df0c55
p1983
tp1984
(lp1985
(((I5
I2
I518400
I495821
tp1986
F2.7
I4
(I0
I0
I1296000
I1585356
tp1987
tp1988
F2.7
tp1989
as(g2
V329352a6
p1990
tp1991
(lp1992
(((I3
I1
I86400
I79719
tp1993
F2.6
I4
(I0
I0
I518400
I1212976
tp1994
tp1995
F2.6
tp1996
as(g2
V1d378f96
p1997
tp1998
(lp1999
(((I4
I0
I0
I195
tp2000
F2.5
I4
(I0
I0
I86400
I156701
tp2001
tp2002
F2.5
tp2003
a((g2000
F2.5
I4
(I1
I0
I0
I13532
tp2004
tp2005
F2.5
tp2006
a((g2000
F2.5
I4
(I2
I0
I0
I375
tp2007
tp2008
F2.5
tp2009
a(((I3
I0
I0
I311
tp2010
F2.5
I4
(I0
I0
I172800
I171672
tp2011
tp2012
F2.5
tp2013
as(g2
V606d690c
p2014
tp2015
(lp2016
(((I2
I2
I432000
I362718
tp2017
F2.7
I4
(I0
I0
I1123200
I3095617
tp2018
tp2019
F2.7
tp2020
as(g2
V3c7b98f7
p2021
tp2022
(lp2023
(((I5
I2
I432000
I858461
tp2024
F2.7
I4
(I0
I0
I1987200
I2237920
tp2025
tp2026
F2.7
tp2027
a((g2024
F2.7
I4
(I1
I0
I0
I684042
tp2028
tp2029
F2.7
tp2030
as(g2
V9718ad0f
p2031
tp2032
(lp2033
(((I7
I1
I86400
I58687
tp2034
F2.6
I4
(I0
I0
I604800
I624734
tp2035
tp2036
F2.6
tp2037
a(((I1
I2
I518400
I858690
tp2038
F2.8
I4
(I0
I0
I2332800
I2921682
tp2039
tp2040
F2.8
tp2041
as(g10
V3fc63972
p2042
tp2043
(lp2044
(((I1
I13
I777600
I931034
tp2045
F3.07
I4
(I0
I0
I3110400
I3102719
tp2046
tp2047
F3.07
tp2048
as(g2
Ve51865e6
p2049
tp2050
(lp2051
(((I4
I0
I0
I44
tp2052
F2.5
I4
(I0
I0
I86400
I78445
tp2053
tp2054
F2.5
tp2055
a((g2052
F2.5
I4
(I1
I0
I0
I1014
tp2056
tp2057
F2.5
tp2058
a((g2052
F2.5
I4
(I2
I0
I0
I13299
tp2059
tp2060
F2.5
tp2061
a((g2052
F2.5
I4
(I3
I0
I0
I337
tp2062
tp2063
F2.5
tp2064
a((g2052
F2.5
I4
(I4
I0
I0
I186
tp2065
tp2066
F2.5
tp2067
a((g2052
F2.5
I4
(I5
I0
I0
I278
tp2068
tp2069
F2.5
tp2070
a((g2052
F2.5
I4
(I6
I0
I0
I363
tp2071
tp2072
F2.5
tp2073
a((g2052
F2.5
I4
(I7
I0
I0
I140
tp2074
tp2075
F2.5
tp2076
a((g2052
F2.5
I4
(I8
I0
I0
I201
tp2077
tp2078
F2.5
tp2079
a((g2052
F2.5
I4
(I9
I0
I0
I36707
tp2080
tp2081
F2.5
tp2082
a((g2052
F2.5
I4
(I10
I0
I0
I45
tp2083
tp2084
F2.5
tp2085
a((g2052
F2.5
I4
(I11
I0
I0
I1217
tp2086
tp2087
F2.5
tp2088
a((g2052
F2.5
I4
(I12
I0
I0
I1255
tp2089
tp2090
F2.5
tp2091
a((g2052
F2.5
I4
(I13
I0
I0
I132
tp2092
tp2093
F2.5
tp2094
a((g2052
F2.5
I4
(I14
I0
I0
I13233
tp2095
tp2096
F2.5
tp2097
a((g2052
F2.5
I4
(I15
I0
I0
I143
tp2098
tp2099
F2.5
tp2100
a((g2052
F2.5
I4
(I16
I0
I0
I355
tp2101
tp2102
F2.5
tp2103
a((g2052
F2.5
I4
(I17
I0
I0
I176
tp2104
tp2105
F2.5
tp2106
a((g2052
F2.5
I4
(I0
I0
I1209600
I1471124
tp2107
tp2108
F2.36
tp2109
as(g2
V558527ce
p2110
tp2111
(lp2112
(((I8
I2
I518400
I476653
tp2113
F2.46
I4
(I0
I0
I1296000
I3095608
tp2114
tp2115
F2.46
tp2116
a((g2113
F2.46
I4
(I1
I0
I0
I684668
tp2117
tp2118
F2.46
tp2119
as(g2
Ve0940d28
p2120
tp2121
(lp2122
(((I11
I0
I0
I390
tp2123
F2.5
I4
(I0
I0
I172800
I134635
tp2124
tp2125
F2.5
tp2126
a(((I1
I2
I604800
I534982
tp2127
F2.7
I4
(I0
I0
I1296000
I3095490
tp2128
tp2129
F2.7
tp2130
as(g2
V752e7172
p2131
tp2132
(lp2133
(((I1
I2
I604800
I617505
tp2134
F2.7
I4
(I0
I0
I1814400
I3882648
tp2135
tp2136
F2.7
tp2137
as(g2
Vb39c2982
p2138
tp2139
(lp2140
(((I2
I1
I172800
I176921
tp2141
F2.6
I4
(I0
I0
I432000
I884826
tp2142
tp2143
F2.6
tp2144
as(g2
Ve9f5a9e0
p2145
tp2146
(lp2147
(((I8
I2
I432000
I437760
tp2148
F2.7
I4
(I0
I0
I1036800
I1643166
tp2149
tp2150
F2.7
tp2151
as(g2
Va0c8f778
p2152
tp2153
(lp2154
(((I9
I1
I172800
I132023
tp2155
F2.6
I4
(I0
I0
I604800
I624614
tp2156
tp2157
F2.6
tp2158
as(g2
Vc326348f
p2159
tp2160
(lp2161
(((I4
I2
I518400
I559175
tp2162
F2.46
I4
(I0
I0
I1123200
I2080076
tp2163
tp2164
F2.46
tp2165
as(g2
V0335a005
p2166
tp2167
(lp2168
(((I5
I2
I604800
I604612
tp2169
F2.6
I4
(I0
I0
I1814400
I3367502
tp2170
tp2171
F2.6
tp2172
as(g2
V838ce05d
p2173
tp2174
(lp2175
(((I3
I2
I518400
I495824
tp2176
F2.7
I4
(I0
I0
I1468800
I3572382
tp2177
tp2178
F2.7
tp2179
as(g2
V64afd5f1
p2180
tp2181
(lp2182
(((I2
I0
I0
I0
tp2183
F2.5
I4
(I0
I0
I86400
I112356
tp2184
tp2185
F2.5
tp2186
a(((I1
I2
I432000
I437830
tp2187
F2.7
I4
(I0
I0
I1296000
I1643563
tp2188
tp2189
F2.7
tp2190
as(g2
V36b7d9e1
p2191
tp2192
(lp2193
(((I1
I0
I0
I483
tp2194
F2.5
I4
(I0
I0
I86400
I75505
tp2195
tp2196
F2.5
tp2197
a(((I1
I1
I86400
I59297
tp2198
F2.6
I4
(I0
I0
I432000
I446286
tp2199
tp2200
F2.6
tp2201
a((g2198
F2.6
I4
(I1
I0
I0
I305
tp2202
tp2203
F2.6
tp2204
a(((I2
I1
I86400
I78217
tp2205
F2.7
I4
(I0
I0
I432000
I984403
tp2206
tp2207
F2.7
tp2208
as(g2
V69a4417c
p2209
tp2210
(lp2211
(((I6
I2
I432000
I559002
tp2212
F2.6
I4
(I0
I0
I1555200
I4067612
tp2213
tp2214
F2.6
tp2215
as(g2
Vf8c47798
p2216
tp2217
(lp2218
(((I3
I0
I0
I223
tp2219
F2.5
I4
(I0
I0
I172800
I171039
tp2220
tp2221
F2.5
tp2222
as(g2
V1d8dd36f
p2223
tp2224
(lp2225
(((I9
I2
I604800
I610002
tp2226
F2.7
I4
(I0
I0
I1468800
I3458274
tp2227
tp2228
F2.7
tp2229
as(g2
Vf7ce2e02
p2230
tp2231
(lp2232
(((I14
I0
I0
I114275
tp2233
F2.5
I4
(I0
I0
I86400
I90182
tp2234
tp2235
F2.5
tp2236
a(((I1
I1
I172800
I145170
tp2237
F2.6
I4
(I0
I0
I604800
I1067602
tp2238
tp2239
F2.6
tp2240
as(g2
V3e98187f
p2241
tp2242
(lp2243
(((I1
I2
I604800
I609225
tp2244
F2.7
I4
(I0
I0
I1641600
I3458505
tp2245
tp2246
F2.7
tp2247
as(g2
Vc50b0df5
p2248
tp2249
(lp2250
(((I1
I2
I604800
I595727
tp2251
F2.7
I4
(I0
I0
I1555200
I3630579
tp2252
tp2253
F2.7
tp2254
as(g2
V7d15e18e
p2255
tp2256
(lp2257
(((I2
I2
I432000
I420103
tp2258
F2.7
I4
(I0
I0
I1382400
I1820557
tp2259
tp2260
F2.7
tp2261
as(g2
V62085aab
p2262
tp2263
(lp2264
(((I1
I2
I604800
I604575
tp2265
F2.7
I4
(I0
I0
I1382400
I3367047
tp2266
tp2267
F2.7
tp2268
as(g2
V43cc9af5
p2269
tp2270
(lp2271
(((I1
I1
I432000
I790935
tp2272
F2.6
I4
(I0
I0
I432000
I2237040
tp2273
tp2274
F2.6
tp2275
as(g2
Vb313165d
p2276
tp2277
(lp2278
(((I1
I2
I432000
I510853
tp2279
F2.7
I4
(I0
I0
I1209600
I1895237
tp2280
tp2281
F2.7
tp2282
as(g2
V75d888bd
p2283
tp2284
(lp2285
(((I2
I2
I604800
I595899
tp2286
F2.6
I4
(I0
I0
I1468800
I3630452
tp2287
tp2288
F2.6
tp2289
as(g2
V9259accb
p2290
tp2291
(lp2292
(((I2
I2
I518400
I528484
tp2293
F2.7
I4
(I0
I0
I1641600
I3971616
tp2294
tp2295
F2.7
tp2296
as(g2
V916b6db7
p2297
tp2298
(lp2299
(((I24
I1
I86400
I53959
tp2300
F2.6
I4
(I0
I0
I604800
I1418332
tp2301
tp2302
F2.6
tp2303
as(g2
V1a1d067e
p2304
tp2305
(lp2306
(((I2
I2
I432000
I435869
tp2307
F2.6
I4
(I0
I0
I1296000
I1984472
tp2308
tp2309
F2.6
tp2310
as(g2
Vc7b47f1b
p2311
tp2312
(lp2313
(((I3
I2
I518400
I525055
tp2314
F2.46
I4
(I0
I0
I950400
I1728336
tp2315
tp2316
F2.46
tp2317
a((g2314
F2.46
I4
(I1
I0
I0
I2838426
tp2318
tp2319
F2.46
tp2320
as(g2
V269ab126
p2321
tp2322
(lp2323
(((I3
I2
I432000
I424218
tp2324
F2.6
I4
(I0
I0
I950400
I1304396
tp2325
tp2326
F2.6
tp2327
as(g2
V741ac1ec
p2328
tp2329
(lp2330
(((I3
I0
I0
I465
tp2331
F2.5
I4
(I0
I0
I86400
I165965
tp2332
tp2333
F2.5
tp2334
a((g2331
F2.5
I4
(I1
I0
I0
I678
tp2335
tp2336
F2.5
tp2337
a((g2331
F2.5
I4
(I2
I0
I0
I401
tp2338
tp2339
F2.5
tp2340
a((g2331
F2.5
I4
(I3
I0
I0
I142
tp2341
tp2342
F2.5
tp2343
a((g2331
F2.5
I4
(I4
I0
I0
I142
tp2344
tp2345
F2.5
tp2346
a((g2331
F2.5
I4
(I5
I0
I0
I170481
tp2347
tp2348
F2.5
tp2349
a((g2331
F2.5
I4
(I6
I0
I0
I212
tp2350
tp2351
F2.5
tp2352
a((g2331
F2.5
I4
(I7
I0
I0
I294
tp2353
tp2354
F2.5
tp2355
a((g2331
F2.5
I4
(I8
I0
I0
I97
tp2356
tp2357
F2.5
tp2358
a((g2331
F2.5
I4
(I9
I0
I0
I172154
tp2359
tp2360
F2.5
tp2361
a((g2331
F2.5
I4
(I10
I0
I0
I501
tp2362
tp2363
F2.5
tp2364
a((g2331
F2.5
I4
(I11
I0
I0
I2435
tp2365
tp2366
F2.5
tp2367
a(((I12
I0
I0
I222
tp2368
F2.5
I4
(I0
I0
I172800
I131944
tp2369
tp2370
F2.5
tp2371
a((g2368
F2.5
I4
(I1
I0
I0
I13832
tp2372
tp2373
F2.5
tp2374
as(g2
Va64e90d9
p2375
tp2376
(lp2377
(((I19
I0
I0
I264
tp2378
F2.5
I4
(I0
I0
I86400
I157152
tp2379
tp2380
F2.5
tp2381
a(((I1
I0
I0
I13597
tp2382
F2.5
I4
(I0
I0
I604800
I582102
tp2383
tp2384
F2.5
tp2385
a(((I1
I2
I518400
I967861
tp2386
F2.6
I4
(I0
I0
I2332800
I2838733
tp2387
tp2388
F2.6
tp2389
as(g2
V2e68f89d
p2390
tp2391
(lp2392
(((I28
I0
I0
I169
tp2393
F2.5
I4
(I0
I0
I518400
I1304221
tp2394
tp2395
F2.5
tp2396
as(g2
V5e663223
p2397
tp2398
(lp2399
(((I2
I0
I0
I91
tp2400
F2.5
I4
(I0
I0
I86400
I92232
tp2401
tp2402
F2.5
tp2403
a((g2400
F2.5
I4
(I1
I0
I0
I852
tp2404
tp2405
F2.5
tp2406
a((g2400
F2.5
I4
(I2
I0
I0
I13694
tp2407
tp2408
F2.5
tp2409
a((g2400
F2.5
I4
(I3
I0
I0
I179
tp2410
tp2411
F2.5
tp2412
a((g2400
F2.5
I4
(I4
I0
I0
I202
tp2413
tp2414
F2.5
tp2415
a((g2400
F2.5
I4
(I5
I0
I0
I430
tp2416
tp2417
F2.5
tp2418
a((g2400
F2.5
I4
(I0
I0
I172800
I323736
tp2419
tp2420
F2.5
tp2421
a((g2400
F2.5
I4
(I0
I0
I604800
I582140
tp2422
tp2423
F2.5
tp2424
as(g2
V44f819c3
p2425
tp2426
(lp2427
(((I2
I2
I432000
I437116
tp2428
F2.7
I4
(I0
I0
I1036800
I1643089
tp2429
tp2430
F2.7
tp2431
as(g2
Ve946ccc4
p2432
tp2433
(lp2434
(((I1
I2
I604800
I610075
tp2435
F2.7
I4
(I0
I0
I1382400
I1472432
tp2436
tp2437
F2.7
tp2438
as(g2
V967aeb4f
p2439
tp2440
(lp2441
(((I1
I2
I518400
I496007
tp2442
F2.7
I4
(I0
I0
I1641600
I3572639
tp2443
tp2444
F2.7
tp2445
as(g2
V0cd0b080
p2446
tp2447
(lp2448
(((I1
I0
I0
I0
tp2449
F2.5
I4
(I0
I0
I518400
I0
tp2450
tp2451
F2.5
tp2452
as(g2
V14443046
p2453
tp2454
(lp2455
(((I4
I2
I518400
I495345
tp2456
F2.6
I4
(I0
I0
I1468800
I3572379
tp2457
tp2458
F2.6
tp2459
as(g2
Vda737769
p2460
tp2461
(lp2462
(((I24
I2
I518400
I495785
tp2463
F2.6
I4
(I0
I0
I1382400
I3572232
tp2464
tp2465
F2.6
tp2466
as(g2
V8f2ed0c5
p2467
tp2468
(lp2469
(((I18
I1
I86400
I25702
tp2470
F2.6
I4
(I0
I0
I518400
I941613
tp2471
tp2472
F2.6
tp2473
as(g2
Vfdd5b62d
p2474
tp2475
(lp2476
(((I1
I1
I86400
I89973
tp2477
F2.6
I4
(I0
I0
I518400
I1212976
tp2478
tp2479
F2.6
tp2480
as.