ccollections
defaultdict
p0
(tRp1
(I0
I0
I86400
I156993
tp2
F2.5
s(I1
I3
I172800
I156280
tp3
F2.5
s(I1
I0
I0
I40954
tp4
F2.5
s(I11
I0
I0
I218
tp5
F3.2
s(I1
I2
I432000
I15834
tp6
F2.5
s(I7
I0
I0
I271
tp7
F3.2
s(I4
I2
I518400
I496142
tp8
F2.5
s(I6
I0
I0
I5079
tp9
F2.5
s(I1
I0
I0
I176
tp10
F3.2
s(I2
I1
I86400
I165227
tp11
F2.5
s(I1
I4
I604800
I630382
tp12
F2.5
s(I2
I0
I0
I219
tp13
F3.2
s(I1
I9
I86400
I94798
tp14
F2.5
s(I1
I8
I1641600
I1628990
tp15
F2.5
s(I1
I11
I172800
I3653
tp16
F2.5
s(I2
I0
I0
I77815
tp17
F2.5
s(I5
I0
I0
I38
tp18
F3.2
s(I2
I1
I86400
I112279
tp19
F2.5
s(I1
I1
I86400
I106000
tp20
F2.5
s(I8
I0
I0
I97
tp21
F3.2
s(I1
I0
I0
I903
tp22
F3.2
s(I2
I1
I86400
I38121
tp23
F2.5
s(I3
I0
I0
I290
tp24
F3.2
s(I1
I4
I259200
I46
tp25
F2.5
s(I5
I1
I172800
I3451436
tp26
F2.5
s(I1
I3
I259200
I53655
tp27
F2.5
s(I8
I0
I0
I330
tp28
F3.2
s(I7
I0
I0
I436
tp29
F3.2
s(I2
I1
I172800
I175233
tp30
F2.5
s(I2
I0
I0
I777
tp31
F3.2
s(I7
I0
I0
I14046
tp32
F2.5
s(I1
I0
I0
I73
tp33
F3.2
s(I2
I1
I86400
I73429
tp34
F2.5
s(I6
I0
I0
I255
tp35
F3.2
s(I1
I7
I604800
I3560
tp36
F2.5
s(I33
I0
I0
I360
tp37
F2.5
s(I2
I0
I0
I13448
tp38
F2.5
s(I1
I2
I604800
I595740
tp39
F2.5
s(I1
I7
I777600
I931036
tp40
F2.5
s(I1
I4
I691200
I919101
tp41
F2.5
s(I0
I0
I604800
I330231
tp42
F2.5
s(I2
I0
I0
I123
tp43
F3.2
s(I15
I0
I0
I1267
tp44
F2.5
s(I1
I1
I86400
I89426
tp45
F2.5
s(I0
I0
I518400
I121572
tp46
F2.5
s(I5
I0
I0
I70
tp47
F3.2
s(I1
I4
I86400
I40787
tp48
F2.5
s(I1
I9
I518400
I533939
tp49
F2.5
s(I1
I2
I432000
I686293
tp50
F2.5
s(I10
I0
I0
I150
tp51
F3.2
s(I6
I0
I0
I9309
tp52
F2.5
s(I1
I2
I432000
I437006
tp53
F2.5
s(I1
I3
I518400
I492686
tp54
F2.5
s(I0
I0
I86400
I37025
tp55
F2.5
s(I2
I1
I172800
I206079
tp56
F2.5
s(I3
I2
I432000
I420047
tp57
F2.5
s(I5
I0
I0
I304
tp58
F3.2
s(I8
I0
I0
I2512
tp59
F2.5
s(I1
I2
I432000
I510822
tp60
F2.5
s(I8
I0
I0
I36725
tp61
F2.5
s(I0
I0
I86400
I25376
tp62
F2.5
s(I0
I0
I604800
I648268
tp63
F2.5
s(I1
I3
I1641600
I1893705
tp64
F2.5
s(I15
I0
I0
I5236
tp65
F2.5
s(I7
I0
I0
I162
tp66
F3.2
s(I3
I0
I0
I267
tp67
F3.2
s(I2
I0
I0
I27
tp68
F3.2
s(I1
I0
I0
I267
tp69
F3.2
s(I4
I0
I0
I9940
tp70
F2.5
s(I2
I0
I0
I217505
tp71
F2.5
s(I13
I0
I0
I72443
tp72
F2.5
s(I1
I1
I172800
I91014
tp73
F2.5
s(I1
I2
I604800
I604208
tp74
F2.5
s(I3
I1
I86400
I79720
tp75
F2.5
s(I0
I0
I172800
I123447
tp76
F2.5
s(I1
I10
I172800
I156329
tp77
F2.5
s(I1
I1
I86400
I12999
tp78
F2.5
s(I1
I2
I518400
I495178
tp79
F2.5
s(I1
I13
I172800
I172568
tp80
F2.5
s(I1
I0
I0
I98
tp81
F3.2
s(I1
I1
I345600
I306331
tp82
F2.5
s(I4
I0
I0
I137
tp83
F3.2
s(I0
I0
I518400
I525101
tp84
F2.5
s(I0
I0
I86400
I78418
tp85
F2.5
s(I1
I0
I0
I889
tp86
F3.2
s(I2
I1
I172800
I171913
tp87
F2.5
s(I11
I0
I0
I1018
tp88
F2.5
s(I9
I0
I0
I36442
tp89
F2.5
s(I1
I3
I864000
I1041516
tp90
F2.5
s(I4
I0
I0
I287
tp91
F3.2
s(I4
I0
I0
I288
tp92
F3.2
s(I1
I1
I86400
I70762
tp93
F2.5
s(I2
I7
I345600
I3790
tp94
F2.5
s(I0
I0
I172800
I106161
tp95
F2.5
s(I7
I0
I0
I774
tp96
F3.2
s(I4
I0
I0
I0
tp97
F3.2
s(I2
I2
I518400
I105087
tp98
F2.5
s(I7
I2
I518400
I495341
tp99
F2.5
s(I1
I5
I172800
I131962
tp100
F2.5
s(I16
I0
I0
I304
tp101
F2.5
s(I1
I2
I432000
I536788
tp102
F2.5
s(I3
I0
I0
I249
tp103
F3.2
s(I2
I0
I0
I301
tp104
F3.2
s(I20
I0
I0
I5149
tp105
F2.5
s(I1
I2
I432000
I436917
tp106
F2.5
s(I0
I0
I259200
I0
tp107
F2.5
s(I1
I3
I86400
I48236
tp108
F2.5
s(I5
I0
I0
I240
tp109
F3.2
s(I10
I0
I0
I1164
tp110
F2.5
s(I3
I0
I0
I78862
tp111
F2.5
s(I8
I0
I0
I15
tp112
F1.3
s(I1
I6
I518400
I7868
tp113
F2.5
s(I0
I0
I432000
I6180114
tp114
F2.5
s(I1
I6
I172800
I92694
tp115
F2.5
s(I10
I0
I0
I456
tp116
F3.2
s(I2
I0
I0
I50
tp117
F3.2
s(I1
I0
I0
I25
tp118
F3.2
s(I1
I5
I1555200
I1451980
tp119
F2.5
s(I1
I1
I172800
I324672
tp120
F2.5
s(I1
I0
I0
I560
tp121
F3.2
s(I4
I0
I0
I102787
tp122
F2.5
s(I2
I2
I432000
I437119
tp123
F2.5
s(I10
I0
I0
I36494
tp124
F2.5
s(I4
I0
I0
I72546
tp125
F2.5
s(I2
I9
I604800
I629766
tp126
F2.5
s(I1
I0
I0
I75
tp127
F3.2
s(I4
I0
I0
I160
tp128
F3.2
s(I0
I0
I86400
I75505
tp129
F2.5
s(I1
I5
I345600
I333550
tp130
F2.5
s(I3
I1
I172800
I176847
tp131
F2.5
s(I7
I0
I0
I285
tp132
F3.2
s(I1
I2
I432000
I510815
tp133
F2.5
s(I1
I0
I0
I3387
tp134
F2.5
s(I1
I1
I86400
I115394
tp135
F2.5
s(I1
I2
I518400
I858690
tp136
F2.5
s(I0
I0
I86400
I25559
tp137
F2.5
s(I1
I5
I86400
I94777
tp138
F2.5
s(I6
I0
I0
I278
tp139
F3.2
s(I4
I0
I0
I310
tp140
F3.2
s(I19
I0
I0
I54362
tp141
F2.5
s(I2
I1
I86400
I88300
tp142
F2.5
s(I1
I4
I172800
I53
tp143
F2.5
s(I0
I0
I172800
I171672
tp144
F2.5
s(I1
I2
I604800
I603524
tp145
F2.5
s(I2
I1
I172800
I204540
tp146
F2.5
s(I10
I0
I0
I104
tp147
F3.2
s(I3
I0
I0
I304
tp148
F3.2
s(I3
I0
I0
I350164
tp149
F2.5
s(I2
I0
I0
I217464
tp150
F2.5
s(I15
I0
I0
I713
tp151
F2.5
s(I1
I2
I518400
I48611
tp152
F2.5
s(I1
I5
I259200
I236805
tp153
F2.5
s(I3
I2
I604800
I609859
tp154
F2.5
s(I2
I3
I1036800
I1108435
tp155
F2.5
s(I2
I2
I518400
I504781
tp156
F2.5
s(I1
I0
I0
I43
tp157
F3.2
s(I1
I4
I2246400
I2278664
tp158
F2.5
s(I1
I8
I259200
I104167
tp159
F2.5
s(I1
I9
I172800
I156406
tp160
F2.5
s(I6
I0
I0
I836
tp161
F3.2
s(I1
I4
I172800
I44189
tp162
F2.5
s(I1
I4
I864000
I960647
tp163
F2.5
s(I2
I0
I0
I512
tp164
F3.2
s(I1
I5
I259200
I265423
tp165
F2.5
s(I2
I1
I86400
I77918
tp166
F2.5
s(I2
I0
I0
I109
tp167
F3.2
s(I8
I0
I0
I207
tp168
F3.2
s(I2
I1
I86400
I36826
tp169
F2.5
s(I6
I0
I0
I40122
tp170
F2.5
s(I1
I5
I864000
I859346
tp171
F2.5
s(I3
I2
I518400
I479733
tp172
F2.5
s(I1
I6
I345600
I209324
tp173
F2.5
s(I1
I2
I432000
I510836
tp174
F2.5
s(I1
I2
I518400
I1146184
tp175
F2.5
s(I1
I1
I172800
I67664
tp176
F2.5
s(I8
I0
I0
I673
tp177
F3.2
s(I5
I0
I0
I57
tp178
F3.2
s(I1
I1
I86400
I37987
tp179
F2.5
s(I2
I2
I432000
I420018
tp180
F2.5
s(I1
I2
I604800
I93542
tp181
F2.5
s(I2
I0
I0
I13
tp182
F3.07
s(I0
I0
I86400
I82299
tp183
F2.5
s(I1
I4
I2246400
I2240984
tp184
F2.5
s(I13
I0
I0
I158
tp185
F3.2
s(I4
I0
I0
I53784
tp186
F2.5
s(I1
I6
I86400
I35944
tp187
F2.5
s(I1
I0
I0
I761
tp188
F3.2
s(I5
I0
I0
I427
tp189
F3.2
s(I4
I0
I0
I851
tp190
F3.2
s(I9
I0
I0
I218
tp191
F3.2
s(I11
I0
I0
I129
tp192
F3.2
s(I3
I0
I0
I175
tp193
F3.2
s(I1
I9
I259200
I214102
tp194
F2.5
s(I1
I2
I604800
I568662
tp195
F2.5
s(I15
I0
I0
I364
tp196
F3.2
s(I1
I4
I172800
I89314
tp197
F2.5
s(I1
I10
I691200
I686089
tp198
F2.5
s(I5
I0
I0
I175
tp199
F3.2
s(I4
I0
I0
I11851
tp200
F2.5
s(I1
I2
I604800
I600472
tp201
F2.5
s(I2
I0
I0
I10166
tp202
F2.5
s(I1
I7
I518400
I3542
tp203
F2.5
s(I1
I5
I172800
I44137
tp204
F2.5
s(I1
I0
I0
I40993
tp205
F2.5
s(I24
I0
I0
I442
tp206
F2.5
s(I1
I4
I2332800
I2328020
tp207
F2.5
s(I1
I4
I86400
I49414
tp208
F2.5
s(I10
I0
I0
I179
tp209
F3.2
s(I1
I3
I950400
I863771
tp210
F2.5
s(I1
I1
I172800
I259291
tp211
F2.5
s(I1
I2
I604800
I582082
tp212
F2.5
s(I16
I0
I0
I105568
tp213
F2.5
s(I3
I1
I172800
I883833
tp214
F2.5
s(I20
I0
I0
I5063
tp215
F2.5
s(I36
I0
I0
I167
tp216
F2.5
s(I2
I0
I0
I40007
tp217
F2.5
s(I1
I2
I432000
I436923
tp218
F2.5
s(I5
I0
I0
I226
tp219
F3.2
s(I1
I7
I1382400
I1650262
tp220
F2.5
s(I6
I0
I0
I239
tp221
F3.2
s(I1
I0
I0
I3492
tp222
F2.5
s(I2
I0
I0
I36
tp223
F3.2
s(I0
I0
I432000
I437139
tp224
F2.5
s(I1
I8
I1468800
I2004246
tp225
F2.5
s(I1
I6
I86400
I35921
tp226
F2.5
s(I15
I0
I0
I122
tp227
F3.2
s(I5
I0
I0
I604
tp228
F3.2
s(I9
I0
I0
I20813
tp229
F2.5
s(I2
I1
I86400
I37123
tp230
F2.5
s(I1
I9
I172800
I92686
tp231
F2.5
s(I4
I0
I0
I182
tp232
F3.2
s(I2
I0
I0
I406
tp233
F3.2
s(I6
I0
I0
I2712
tp234
F2.5
s(I4
I0
I0
I2581
tp235
F2.5
s(I1
I4
I2160000
I2170677
tp236
F2.5
s(I0
I0
I864000
I856818
tp237
F2.5
s(I1
I0
I0
I852
tp238
F3.2
s(I1
I5
I432000
I3839
tp239
F2.5
s(I1
I1
I172800
I179101
tp240
F2.5
s(I1
I11
I259200
I251060
tp241
F2.5
s(I1
I2
I518400
I967872
tp242
F2.5
s(I7
I0
I0
I514
tp243
F3.2
s(I7
I0
I0
I2584
tp244
F2.5
s(I1
I11
I172800
I156539
tp245
F2.5
s(I13
I0
I0
I915
tp246
F2.5
s(I1
I1
I172800
I884359
tp247
F2.5
s(I13
I0
I0
I1324
tp248
F2.5
s(I3
I0
I0
I9328
tp249
F2.5
s(I3
I1
I86400
I57147
tp250
F2.5
s(I1
I1
I86400
I210882
tp251
F2.5
s(I2
I0
I0
I10385
tp252
F2.5
s(I2
I1
I86400
I165155
tp253
F2.5
s(I1
I0
I0
I40807
tp254
F2.5
s(I1
I1
I172800
I170876
tp255
F2.5
s(I0
I0
I172800
I105891
tp256
F2.5
s(I1
I7
I172800
I2365
tp257
F2.5
s(I12
I0
I0
I102772
tp258
F2.5
s(I1
I0
I0
I221
tp259
F3.2
s(I2
I1
I172800
I71062
tp260
F2.5
s(I1
I2
I518400
I493686
tp261
F2.5
s(I23
I0
I0
I105560
tp262
F2.5
s(I15
I0
I0
I990
tp263
F2.5
s(I1
I10
I345600
I361600
tp264
F2.5
s(I4
I0
I0
I214
tp265
F3.2
s(I5
I0
I0
I170466
tp266
F2.5
s(I1
I1
I172800
I153192
tp267
F2.5
s(I2
I21
I1123200
I1139476
tp268
F2.5
s(I2
I2
I432000
I510965
tp269
F2.5
s(I2
I0
I0
I102714
tp270
F2.5
s(I1
I2
I604800
I609188
tp271
F2.5
s(I1
I2
I604800
I600529
tp272
F2.5
s(I2
I0
I0
I95
tp273
F3.2
s(I1
I2
I518400
I682549
tp274
F2.5
s(I1
I3
I691200
I759510
tp275
F2.5
s(I0
I0
I172800
I39346
tp276
F2.5
s(I10
I0
I0
I92790
tp277
F2.5
s(I8
I0
I0
I146682
tp278
F2.5
s(I6
I0
I0
I2538
tp279
F2.5
s(I1
I9
I777600
I809223
tp280
F2.5
s(I1
I7
I432000
I3750
tp281
F2.5
s(I1
I7
I259200
I265428
tp282
F2.5
s(I9
I0
I0
I140
tp283
F3.2
s(I1
I3
I345600
I306214
tp284
F2.5
s(I1
I4
I259200
I214191
tp285
F2.5
s(I1
I4
I518400
I481200
tp286
F2.5
s(I11
I0
I0
I215
tp287
F3.2
s(I4
I0
I0
I77
tp288
F3.2
s(I0
I0
I172800
I92502
tp289
F2.5
s(I0
I0
I518400
I525161
tp290
F2.5
s(I1
I1
I86400
I38164
tp291
F2.5
s(I2
I1
I172800
I218192
tp292
F2.5
s(I1
I2
I432000
I510842
tp293
F2.5
s(I1
I12
I259200
I213631
tp294
F2.5
s(I1
I3
I864000
I943731
tp295
F2.5
s(I1
I1
I432000
I883826
tp296
F2.5
s(I6
I0
I0
I1463
tp297
F2.5
s(I2
I0
I0
I214
tp298
F3.2
s(I37
I0
I0
I131
tp299
F1.3
s(I4
I0
I0
I114189
tp300
F2.5
s(I1
I4
I1296000
I1378755
tp301
F2.5
s(I8
I0
I0
I116
tp302
F3.2
s(I2
I1
I86400
I790109
tp303
F2.5
s(I1
I6
I518400
I537505
tp304
F2.5
s(I0
I0
I1382400
I1356631
tp305
F2.5
s(I3
I0
I0
I303
tp306
F3.2
s(I24
I1
I172800
I157241
tp307
F2.5
s(I2
I14
I172800
I359972
tp308
F2.5
s(I12
I0
I0
I126
tp309
F3.2
s(I1
I12
I691200
I722443
tp310
F2.5
s(I5
I0
I0
I82843
tp311
F2.5
s(I1
I4
I259200
I4382
tp312
F2.5
s(I2
I3
I950400
I1326545
tp313
F2.5
s(I1
I0
I0
I6
tp314
F1.76
s(I5
I2
I432000
I858461
tp315
F2.5
s(I4
I0
I0
I237
tp316
F3.2
s(I3
I0
I0
I189
tp317
F3.2
s(I2
I0
I0
I353
tp318
F3.2
s(I1
I4
I259200
I209206
tp319
F2.5
s(I1
I3
I864000
I853088
tp320
F2.5
s(I0
I0
I1296000
I3122033
tp321
F2.5
s(I1
I1
I518400
I481845
tp322
F2.5
s(I12
I0
I0
I1065
tp323
F2.5
s(I1
I2
I432000
I186606
tp324
F2.5
s(I12
I0
I0
I227
tp325
F3.2
s(I2
I0
I0
I14252
tp326
F2.5
s(I1
I4
I345600
I37
tp327
F2.5
s(I3
I0
I0
I105240
tp328
F2.5
s(I0
I0
I172800
I139516
tp329
F2.5
s(I1
I0
I0
I399
tp330
F3.2
s(I1
I1
I172800
I172252
tp331
F2.5
s(I0
I0
I86400
I165965
tp332
F2.5
s(I1
I1
I86400
I92362
tp333
F2.5
s(I1
I5
I432000
I1291
tp334
F2.5
s(I0
I0
I172800
I180163
tp335
F2.5
s(I4
I0
I0
I100
tp336
F3.2
s(I2
I1
I172800
I238796
tp337
F2.5
s(I7
I0
I0
I13231
tp338
F2.5
s(I21
I0
I0
I681
tp339
F2.5
s(I18
I0
I0
I304
tp340
F2.5
s(I4
I0
I0
I14137
tp341
F2.5
s(I1
I1
I86400
I37776
tp342
F2.5
s(I8
I1
I86400
I25620
tp343
F2.5
s(I1
I6
I1814400
I2086209
tp344
F2.5
s(I1
I2
I604800
I600679
tp345
F2.5
s(I1
I2
I604800
I44228
tp346
F2.5
s(I1
I1
I86400
I449
tp347
F2.5
s(I1
I1
I518400
I1292868
tp348
F2.5
s(I4
I0
I0
I72432
tp349
F2.5
s(I1
I12
I259200
I271817
tp350
F2.5
s(I1
I6
I259200
I214032
tp351
F2.5
s(I7
I0
I0
I215
tp352
F3.2
s(I0
I0
I172800
I285383
tp353
F2.5
s(I17
I0
I0
I324
tp354
F2.5
s(I2
I0
I0
I22
tp355
F3.2
s(I20
I0
I0
I175
tp356
F2.5
s(I3
I0
I0
I114358
tp357
F2.5
s(I3
I0
I0
I79109
tp358
F2.5
s(I3
I1
I172800
I149542
tp359
F2.5
s(I2
I1
I86400
I281368
tp360
F2.5
s(I10
I0
I0
I1378
tp361
F2.5
s(I1
I2
I432000
I63590
tp362
F2.5
s(I1
I8
I432000
I3037
tp363
F2.5
s(I2
I1
I86400
I78184
tp364
F2.5
s(I1
I5
I86400
I44116
tp365
F2.5
s(I0
I0
I432000
I448438
tp366
F2.5
s(I1
I2
I604800
I610240
tp367
F2.5
s(I2
I0
I0
I13298
tp368
F2.5
s(I3
I0
I0
I138
tp369
F3.2
s(I2
I0
I0
I408
tp370
F3.2
s(I8
I1
I172800
I323345
tp371
F2.5
s(I1
I0
I0
I82
tp372
F3.2
s(I1
I2
I604800
I624649
tp373
F2.5
s(I1
I1
I86400
I78371
tp374
F2.5
s(I1
I1
I86400
I85183
tp375
F2.5
s(I3
I0
I0
I125
tp376
F3.2
s(I1
I2
I432000
I436777
tp377
F2.5
s(I1
I3
I345600
I3020
tp378
F2.5
s(I1
I0
I0
I1084
tp379
F3.2
s(I11
I0
I0
I1203
tp380
F2.5
s(I0
I0
I86400
I91981
tp381
F2.5
s(I27
I0
I0
I266
tp382
F2.5
s(I1
I9
I864000
I823038
tp383
F2.5
s(I3
I0
I0
I340
tp384
F3.2
s(I2
I0
I0
I13641
tp385
F2.5
s(I0
I0
I172800
I172092
tp386
F3.2
s(I1
I3
I172800
I2599
tp387
F2.5
s(I2
I0
I0
I312
tp388
F3.2
s(I1
I0
I0
I66
tp389
F3.2
s(I1
I3
I1209600
I1213797
tp390
F2.5
s(I1
I12
I86400
I14787
tp391
F2.5
s(I1
I2
I432000
I93665
tp392
F2.5
s(I4
I0
I0
I72814
tp393
F2.5
s(I17
I0
I0
I365
tp394
F2.5
s(I2
I0
I0
I65
tp395
F3.2
s(I2
I2
I432000
I446237
tp396
F2.5
s(I5
I0
I0
I72526
tp397
F2.5
s(I2
I0
I0
I14183
tp398
F2.5
s(I14
I0
I0
I269
tp399
F3.2
s(I0
I0
I518400
I495277
tp400
F2.5
s(I1
I3
I864000
I786628
tp401
F2.5
s(I1
I0
I0
I88
tp402
F3.2
s(I1
I10
I345600
I361599
tp403
F2.5
s(I1
I0
I0
I175
tp404
F3.2
s(I5
I0
I0
I66529
tp405
F2.5
s(I1
I1
I172800
I207135
tp406
F2.5
s(I1
I8
I432000
I209971
tp407
F2.5
s(I1
I1
I86400
I87529
tp408
F2.5
s(I2
I1
I86400
I37282
tp409
F2.5
s(I1
I1
I86400
I91300
tp410
F2.5
s(I2
I0
I0
I77812
tp411
F2.5
s(I3
I0
I0
I48221
tp412
F2.5
s(I1
I7
I1900800
I1967830
tp413
F2.5
s(I1
I5
I691200
I706215
tp414
F2.5
s(I1
I0
I0
I13337
tp415
F2.5
s(I1
I0
I0
I289
tp416
F3.2
s(I1
I7
I1296000
I1499366
tp417
F2.5
s(I21
I0
I0
I160
tp418
F2.5
s(I1
I3
I1296000
I1286362
tp419
F2.5
s(I9
I0
I0
I36458
tp420
F2.5
s(I1
I0
I0
I56
tp421
F3.2
s(I1
I2
I518400
I513040
tp422
F2.5
s(I4
I0
I0
I40220
tp423
F2.5
s(I2
I0
I0
I40091
tp424
F2.5
s(I2
I0
I0
I13261
tp425
F2.5
s(I3
I0
I0
I179
tp426
F3.2
s(I1
I2
I518400
I97920
tp427
F2.5
s(I3
I1
I172800
I171946
tp428
F2.5
s(I3
I1
I86400
I73488
tp429
F2.5
s(I7
I0
I0
I686
tp430
F3.2
s(I22
I0
I0
I5080
tp431
F2.5
s(I2
I0
I0
I543
tp432
F3.2
s(I23
I0
I0
I297
tp433
F2.5
s(I2
I2
I432000
I558987
tp434
F2.5
s(I1
I2
I432000
I186620
tp435
F2.5
s(I2
I0
I0
I120
tp436
F3.2
s(I2
I3
I345600
I310815
tp437
F2.5
s(I0
I0
I518400
I121573
tp438
F2.5
s(I1
I0
I0
I614
tp439
F3.2
s(I3
I0
I0
I14585
tp440
F2.5
s(I10
I0
I0
I151
tp441
F3.2
s(I9
I0
I0
I183
tp442
F3.2
s(I1
I1
I172800
I172270
tp443
F2.5
s(I8
I0
I0
I36461
tp444
F2.5
s(I7
I0
I0
I99568
tp445
F2.5
s(I6
I0
I0
I722
tp446
F3.2
s(I0
I0
I604800
I210239
tp447
F2.5
s(I1
I2
I432000
I510817
tp448
F2.5
s(I1
I3
I172800
I91449
tp449
F2.5
s(I0
I0
I86400
I126360
tp450
F2.5
s(I2
I0
I0
I243
tp451
F3.2
s(I4
I1
I86400
I105062
tp452
F2.5
s(I1
I1
I172800
I294642
tp453
F2.5
s(I11
I0
I0
I1217
tp454
F2.5
s(I4
I0
I0
I1119
tp455
F3.2
s(I8
I0
I0
I89
tp456
F3.2
s(I1
I4
I777600
I919108
tp457
F2.5
s(I1
I3
I518400
I492662
tp458
F2.5
s(I0
I0
I1468800
I3746761
tp459
F2.5
s(I18
I0
I0
I212
tp460
F2.5
s(I1
I1
I345600
I790370
tp461
F2.5
s(I9
I0
I0
I36640
tp462
F2.5
s(I2
I0
I0
I24
tp463
F3.2
s(I1
I1
I86400
I26084
tp464
F2.5
s(I0
I0
I172800
I92051
tp465
F2.5
s(I4
I0
I0
I319
tp466
F3.2
s(I0
I0
I172800
I139552
tp467
F2.5
s(I2
I1
I172800
I157812
tp468
F2.5
s(I0
I0
I86400
I92116
tp469
F2.5
s(I1
I2
I518400
I515107
tp470
F2.5
s(I1
I3
I1468800
I2004197
tp471
F2.5
s(I1
I4
I864000
I830471
tp472
F2.5
s(I1
I3
I777600
I1166943
tp473
F2.5
s(I1
I0
I0
I97
tp474
F3.2
s(I2
I0
I0
I11869
tp475
F2.5
s(I2
I2
I518400
I495890
tp476
F2.5
s(I3
I0
I0
I152
tp477
F3.2
s(I0
I0
I86400
I75435
tp478
F2.5
s(I1
I16
I1209600
I1326793
tp479
F2.5
s(I13
I0
I0
I4996
tp480
F2.5
s(I1
I2
I432000
I394225
tp481
F2.5
s(I6
I0
I0
I215
tp482
F3.2
s(I5
I0
I0
I343
tp483
F3.2
s(I2
I1
I86400
I53938
tp484
F2.5
s(I1
I2
I518400
I4311
tp485
F2.5
s(I2
I0
I0
I566
tp486
F3.2
s(I0
I0
I172800
I106329
tp487
F2.5
s(I1
I1
I172800
I172504
tp488
F2.5
s(I1
I2
I432000
I44188
tp489
F2.5
s(I5
I0
I0
I110
tp490
F3.2
s(I1
I1
I172800
I180093
tp491
F2.5
s(I1
I3
I1209600
I1175882
tp492
F2.5
s(I1
I1
I86400
I2485
tp493
F2.5
s(I1
I9
I259200
I214100
tp494
F2.5
s(I4
I2
I518400
I495345
tp495
F2.5
s(I0
I0
I86400
I139517
tp496
F2.5
s(I1
I4
I172800
I156501
tp497
F2.5
s(I1
I0
I0
I678
tp498
F3.2
s(I1
I1
I172800
I402821
tp499
F2.5
s(I1
I11
I1641600
I1570613
tp500
F2.5
s(I15
I0
I0
I177102
tp501
F2.5
s(I1
I3
I950400
I1376679
tp502
F2.5
s(I10
I0
I0
I304
tp503
F3.2
s(I1
I12
I777600
I850103
tp504
F2.5
s(I1
I4
I432000
I447004
tp505
F2.5
s(I1
I10
I1123200
I1094969
tp506
F2.5
s(I2
I0
I0
I51
tp507
F3.2
s(I0
I0
I172800
I323556
tp508
F2.5
s(I1
I13
I777600
I781271
tp509
F2.5
s(I21
I0
I0
I170196
tp510
F2.5
s(I1
I2
I518400
I199815
tp511
F2.5
s(I1
I0
I0
I102486
tp512
F2.5
s(I1
I1
I345600
I324914
tp513
F2.5
s(I1
I3
I259200
I142262
tp514
F2.5
s(I0
I0
I86400
I91963
tp515
F2.5
s(I18
I0
I0
I404
tp516
F2.5
s(I3
I0
I0
I239092
tp517
F2.5
s(I0
I0
I86400
I64249
tp518
F2.5
s(I1
I3
I86400
I35831
tp519
F2.5
s(I9
I0
I0
I72482
tp520
F2.5
s(I0
I0
I172800
I162715
tp521
F2.5
s(I1
I5
I345600
I333551
tp522
F2.5
s(I1
I3
I259200
I2672
tp523
F2.5
s(I0
I0
I864000
I856805
tp524
F2.5
s(I1
I0
I0
I161
tp525
F3.2
s(I4
I0
I0
I9406
tp526
F2.5
s(I1
I1
I86400
I115395
tp527
F2.5
s(I5
I0
I0
I979
tp528
F3.2
s(I1
I11
I259200
I197949
tp529
F2.5
s(I3
I0
I0
I88
tp530
F3.2
s(I2
I0
I0
I202
tp531
F3.2
s(I1
I1
I172800
I0
tp532
F2.5
s(I6
I0
I0
I279
tp533
F3.2
s(I1
I0
I0
I92453
tp534
F2.5
s(I8
I0
I0
I144
tp535
F3.2
s(I1
I2
I518400
I513424
tp536
F2.5
s(I1
I1
I172800
I161532
tp537
F2.5
s(I4
I0
I0
I472
tp538
F3.2
s(I1
I4
I86400
I40907
tp539
F2.5
s(I1
I5
I259200
I236802
tp540
F2.5
s(I3
I2
I604800
I609858
tp541
F2.5
s(I0
I0
I432000
I3823
tp542
F2.5
s(I2
I0
I0
I66296
tp543
F2.5
s(I1
I0
I0
I42
tp544
F3.2
s(I0
I0
I1123200
I1103274
tp545
F2.5
s(I12
I0
I0
I379
tp546
F3.2
s(I3
I0
I0
I193
tp547
F3.2
s(I1
I3
I777600
I758677
tp548
F2.5
s(I1
I2
I518400
I495054
tp549
F2.5
s(I1
I1
I172800
I469141
tp550
F2.5
s(I1
I2
I518400
I493012
tp551
F2.5
s(I6
I0
I0
I230
tp552
F3.2
s(I1
I3
I1209600
I1166578
tp553
F2.5
s(I10
I0
I0
I496
tp554
F3.2
s(I2
I0
I0
I106
tp555
F3.2
s(I1
I0
I0
I348
tp556
F3.2
s(I3
I0
I0
I40160
tp557
F2.5
s(I9
I0
I0
I303
tp558
F3.2
s(I1
I1
I172800
I162336
tp559
F2.5
s(I22
I0
I0
I117
tp560
F2.5
s(I15
I0
I0
I207
tp561
F3.2
s(I14
I0
I0
I255
tp562
F3.2
s(I7
I0
I0
I293
tp563
F3.2
s(I6
I0
I0
I97
tp564
F3.2
s(I1
I2
I518400
I493699
tp565
F2.5
s(I8
I0
I0
I36708
tp566
F2.5
s(I1
I0
I0
I13597
tp567
F2.5
s(I1
I2
I518400
I642188
tp568
F2.5
s(I17
I0
I0
I561
tp569
F2.5
s(I3
I0
I0
I33
tp570
F3.2
s(I2
I0
I0
I229
tp571
F3.2
s(I1
I2
I432000
I199612
tp572
F2.5
s(I22
I0
I0
I354
tp573
F2.5
s(I1
I15
I1123200
I1225224
tp574
F2.5
s(I1
I5
I86400
I115442
tp575
F2.5
s(I8
I1
I86400
I115263
tp576
F2.5
s(I1
I1
I86400
I37182
tp577
F2.5
s(I3
I0
I0
I177010
tp578
F2.5
s(I1
I0
I0
I476473
tp579
F2.5
s(I1
I1
I86400
I61967
tp580
F2.5
s(I1
I1
I86400
I169817
tp581
F2.5
s(I3
I0
I0
I66487
tp582
F2.5
s(I1
I4
I86400
I44156
tp583
F2.5
s(I8
I0
I0
I336
tp584
F3.2
s(I1
I12
I86400
I40990
tp585
F2.5
s(I6
I1
I172800
I134623
tp586
F2.5
s(I1
I4
I1036800
I1291181
tp587
F2.5
s(I1
I0
I0
I19
tp588
F3.2
s(I1
I2
I432000
I648287
tp589
F2.5
s(I4
I0
I0
I581
tp590
F3.2
s(I0
I0
I172800
I0
tp591
F2.5
s(I0
I0
I86400
I38581
tp592
F2.5
s(I2
I0
I0
I568
tp593
F3.2
s(I1
I2
I604800
I600475
tp594
F2.5
s(I5
I0
I0
I88
tp595
F3.2
s(I4
I2
I604800
I600979
tp596
F2.5
s(I1
I2
I518400
I496076
tp597
F2.5
s(I1
I1
I86400
I38005
tp598
F2.5
s(I1
I1
I172800
I145169
tp599
F2.5
s(I0
I0
I172800
I176904
tp600
F2.5
s(I9
I0
I0
I36690
tp601
F2.5
s(I21
I0
I0
I379
tp602
F2.5
s(I0
I0
I172800
I145462
tp603
F2.5
s(I1
I4
I86400
I40860
tp604
F2.5
s(I2
I0
I0
I14016
tp605
F2.5
s(I1
I1
I345600
I343081
tp606
F2.5
s(I1
I6
I345600
I198976
tp607
F2.5
s(I2
I2
I432000
I450207
tp608
F2.5
s(I21
I0
I0
I266
tp609
F2.5
s(I1
I7
I691200
I686086
tp610
F2.5
s(I1
I2
I604800
I610116
tp611
F2.5
s(I30
I0
I0
I163
tp612
F2.5
s(I1
I2
I432000
I10694
tp613
F2.5
s(I1
I2
I518400
I44221
tp614
F2.5
s(I26
I0
I0
I167
tp615
F2.5
s(I0
I0
I172800
I167619
tp616
F2.5
s(I1
I4
I345600
I306342
tp617
F2.5
s(I4
I0
I0
I398
tp618
F3.2
s(I0
I0
I259200
I2711
tp619
F2.5
s(I2
I0
I0
I14562
tp620
F2.5
s(I6
I0
I0
I182
tp621
F3.2
s(I14
I0
I0
I297
tp622
F3.2
s(I11
I0
I0
I2644
tp623
F2.5
s(I0
I0
I432000
I984318
tp624
F2.5
s(I1
I2
I604800
I617505
tp625
F2.5
s(I1
I2
I432000
I510853
tp626
F2.5
s(I1
I2
I604800
I63847
tp627
F2.5
s(I3
I1
I86400
I25774
tp628
F2.5
s(I4
I0
I0
I183
tp629
F3.2
s(I4
I0
I0
I13807
tp630
F2.5
s(I1
I4
I1123200
I1105872
tp631
F2.5
s(I31
I0
I0
I86037
tp632
F2.5
s(I1
I4
I1296000
I1299218
tp633
F2.5
s(I26
I0
I0
I302
tp634
F2.5
s(I1
I4
I1382400
I1475528
tp635
F2.5
s(I2
I0
I0
I34591
tp636
F2.5
s(I2
I0
I0
I77800
tp637
F2.5
s(I1
I2
I604800
I635209
tp638
F2.5
s(I6
I0
I0
I257
tp639
F3.2
s(I4
I0
I0
I261
tp640
F3.2
s(I1
I6
I259200
I64
tp641
F2.5
s(I1
I0
I0
I938
tp642
F3.2
s(I4
I0
I0
I40162
tp643
F2.5
s(I0
I0
I3715200
I3714405
tp644
F2.5
s(I1
I11
I432000
I444098
tp645
F2.5
s(I1
I5
I1728000
I1893759
tp646
F2.5
s(I1
I12
I518400
I82489
tp647
F2.5
s(I4
I0
I0
I46
tp648
F3.2
s(I0
I0
I86400
I125450
tp649
F2.5
s(I0
I0
I172800
I166104
tp650
F2.5
s(I2
I1
I86400
I127039
tp651
F2.5
s(I14
I0
I0
I137
tp652
F3.2
s(I1
I3
I345600
I248455
tp653
F2.5
s(I1
I0
I0
I220
tp654
F3.2
s(I0
I0
I691200
I660814
tp655
F2.5
s(I5
I0
I0
I1110
tp656
F3.2
s(I11
I0
I0
I89
tp657
F3.2
s(I3
I0
I0
I215
tp658
F3.2
s(I1
I1
I86400
I37946
tp659
F2.5
s(I16
I0
I0
I111
tp660
F3.2
s(I1
I8
I432000
I2812
tp661
F2.5
s(I19
I0
I0
I186
tp662
F2.5
s(I3
I0
I0
I462
tp663
F3.2
s(I2
I0
I0
I92
tp664
F3.2
s(I1
I3
I432000
I246
tp665
F2.5
s(I8
I0
I0
I254
tp666
F3.2
s(I1
I1
I172800
I210888
tp667
F2.5
s(I12
I0
I0
I1332
tp668
F2.5
s(I4
I0
I0
I770
tp669
F3.2
s(I3
I3
I777600
I767911
tp670
F2.5
s(I1
I7
I86400
I40912
tp671
F2.5
s(I1
I2
I432000
I884790
tp672
F2.5
s(I1
I0
I0
I421
tp673
F3.2
s(I1
I2
I432000
I447064
tp674
F2.5
s(I1
I6
I259200
I106523
tp675
F2.5
s(I1
I1
I518400
I504286
tp676
F2.5
s(I1
I1
I86400
I38165
tp677
F2.5
s(I3
I0
I0
I154
tp678
F3.2
s(I0
I0
I2678400
I2587738
tp679
F2.5
s(I1
I1
I172800
I4360
tp680
F2.5
s(I0
I0
I86400
I157102
tp681
F2.5
s(I5
I1
I172800
I790602
tp682
F2.5
s(I1
I2
I518400
I642194
tp683
F2.5
s(I3
I0
I0
I55
tp684
F3.2
s(I2
I0
I0
I215
tp685
F3.2
s(I5
I0
I0
I42
tp686
F3.2
s(I1
I0
I0
I90006
tp687
F2.5
s(I9
I0
I0
I345
tp688
F3.2
s(I2
I0
I0
I1427
tp689
F3.2
s(I1
I0
I0
I915
tp690
F3.2
s(I1
I0
I0
I3180
tp691
F2.5
s(I6
I1
I172800
I171521
tp692
F2.5
s(I1
I0
I0
I302
tp693
F3.2
s(I1
I2
I604800
I63925
tp694
F2.5
s(I1
I3
I259200
I53659
tp695
F2.5
s(I1
I4
I259200
I4381
tp696
F2.5
s(I1
I2
I432000
I71865
tp697
F2.5
s(I15
I0
I0
I178
tp698
F3.2
s(I1
I1
I172800
I157543
tp699
F2.5
s(I3
I0
I0
I1567
tp700
F3.2
s(I8
I0
I0
I1160
tp701
F2.5
s(I0
I0
I86400
I790140
tp702
F2.5
s(I0
I0
I172800
I106383
tp703
F2.5
s(I5
I0
I0
I179
tp704
F3.2
s(I1
I5
I345600
I1287
tp705
F2.5
s(I22
I0
I0
I584
tp706
F2.5
s(I1
I1
I345600
I883723
tp707
F2.5
s(I4
I0
I0
I350259
tp708
F2.5
s(I1
I2
I432000
I186601
tp709
F2.5
s(I2
I0
I0
I119
tp710
F3.2
s(I1
I2
I604800
I601166
tp711
F2.5
s(I6
I0
I0
I114186
tp712
F2.5
s(I2
I2
I604800
I646619
tp713
F2.5
s(I1
I2
I518400
I199803
tp714
F2.5
s(I8
I0
I0
I213
tp715
F3.2
s(I3
I1
I86400
I111649
tp716
F2.5
s(I1
I1
I86400
I114710
tp717
F2.5
s(I1
I2
I604800
I326101
tp718
F2.5
s(I1
I3
I518400
I489851
tp719
F2.5
s(I4
I0
I0
I101
tp720
F3.2
s(I0
I0
I86400
I125489
tp721
F2.5
s(I1
I2
I432000
I437830
tp722
F2.5
s(I1
I9
I432000
I2867
tp723
F2.5
s(I1
I2
I518400
I505746
tp724
F2.5
s(I1
I0
I0
I229
tp725
F3.2
s(I5
I0
I0
I102704
tp726
F2.5
s(I3
I0
I0
I28
tp727
F3.2
s(I2
I0
I0
I270
tp728
F3.2
s(I1
I2
I604800
I581882
tp729
F2.5
s(I1
I2
I432000
I91605
tp730
F2.5
s(I5
I0
I0
I211
tp731
F3.2
s(I1
I0
I0
I1115
tp732
F3.2
s(I22
I0
I0
I72470
tp733
F2.5
s(I1
I11
I345600
I333566
tp734
F2.5
s(I10
I0
I0
I45
tp735
F1.3
s(I2
I0
I0
I23
tp736
F3.2
s(I1
I2
I518400
I504769
tp737
F2.5
s(I0
I0
I1296000
I1585411
tp738
F2.5
s(I4
I0
I0
I412
tp739
F3.2
s(I1
I6
I86400
I35918
tp740
F2.5
s(I0
I0
I86400
I77243
tp741
F2.5
s(I2
I2
I432000
I439142
tp742
F2.5
s(I1
I0
I0
I110
tp743
F3.2
s(I1
I1
I172800
I172221
tp744
F2.5
s(I2
I0
I0
I13299
tp745
F2.5
s(I2
I9
I432000
I467320
tp746
F2.5
s(I3
I0
I0
I133
tp747
F3.2
s(I0
I0
I518400
I525073
tp748
F2.5
s(I1
I0
I0
I837
tp749
F3.2
s(I1
I1
I86400
I47658
tp750
F2.5
s(I5
I0
I0
I102736
tp751
F2.5
s(I1
I3
I950400
I1376683
tp752
F2.5
s(I0
I0
I172800
I162053
tp753
F2.5
s(I1
I2
I432000
I436776
tp754
F2.5
s(I1
I3
I259200
I91553
tp755
F2.5
s(I1
I3
I345600
I3021
tp756
F2.5
s(I0
I0
I86400
I105060
tp757
F2.5
s(I4
I0
I0
I267
tp758
F3.2
s(I2
I0
I0
I102546
tp759
F2.5
s(I25
I0
I0
I79106
tp760
F2.5
s(I5
I0
I0
I10020
tp761
F2.5
s(I1
I9
I432000
I3085
tp762
F2.5
s(I3
I0
I0
I163
tp763
F3.2
s(I1
I2
I518400
I524799
tp764
F2.5
s(I2
I1
I86400
I57042
tp765
F2.5
s(I3
I0
I0
I1010
tp766
F3.2
s(I2
I6
I86400
I77898
tp767
F2.5
s(I1
I0
I0
I691
tp768
F3.2
s(I20
I0
I0
I5101
tp769
F2.5
s(I16
I0
I0
I260
tp770
F3.2
s(I1
I0
I0
I206
tp771
F3.2
s(I1
I9
I86400
I77902
tp772
F2.5
s(I2
I0
I0
I313
tp773
F3.2
s(I1
I0
I0
I99945
tp774
F2.5
s(I1
I3
I86400
I49292
tp775
F2.5
s(I4
I0
I0
I642
tp776
F3.2
s(I1
I0
I0
I805
tp777
F3.2
s(I22
I0
I0
I10061
tp778
F2.5
s(I2
I1
I86400
I38031
tp779
F2.5
s(I2
I0
I0
I78
tp780
F3.2
s(I0
I0
I518400
I6219420
tp781
F2.5
s(I1
I3
I950400
I875743
tp782
F2.5
s(I11
I0
I0
I13146
tp783
F2.5
s(I1
I2
I518400
I520568
tp784
F2.5
s(I1
I10
I172800
I149956
tp785
F2.5
s(I1
I2
I604800
I622896
tp786
F2.5
s(I8
I0
I0
I236
tp787
F3.2
s(I0
I0
I604800
I565203
tp788
F2.5
s(I1
I2
I432000
I393393
tp789
F2.5
s(I1
I3
I691200
I850070
tp790
F2.5
s(I9
I0
I0
I157
tp791
F3.2
s(I1
I0
I0
I87
tp792
F3.2
s(I1
I2
I432000
I415923
tp793
F2.5
s(I4
I0
I0
I92
tp794
F3.2
s(I1
I3
I1382400
I1499510
tp795
F2.5
s(I1
I7
I86400
I10363
tp796
F2.5
s(I2
I5
I172800
I44139
tp797
F2.5
s(I1
I2
I518400
I484306
tp798
F2.5
s(I17
I0
I0
I533
tp799
F2.5
s(I2
I0
I0
I28055
tp800
F2.5
s(I3
I0
I0
I69
tp801
F3.2
s(I2
I0
I0
I217
tp802
F3.2
s(I2
I1
I172800
I153477
tp803
F2.5
s(I3
I0
I0
I13247
tp804
F2.5
s(I16
I0
I0
I72511
tp805
F2.5
s(I1
I1
I172800
I135052
tp806
F2.5
s(I1
I2
I432000
I44198
tp807
F2.5
s(I1
I13
I86400
I64542
tp808
F2.5
s(I1
I3
I864000
I852631
tp809
F2.5
s(I3
I1
I172800
I204409
tp810
F2.5
s(I7
I0
I0
I2622
tp811
F2.5
s(I1
I1
I86400
I98151
tp812
F2.5
s(I1
I10
I86400
I3605
tp813
F2.5
s(I1
I8
I345600
I306296
tp814
F2.5
s(I3
I0
I0
I316
tp815
F3.2
s(I13
I0
I0
I185
tp816
F3.2
s(I17
I0
I0
I256
tp817
F2.5
s(I4
I1
I172800
I218136
tp818
F2.5
s(I1
I0
I0
I102403
tp819
F2.5
s(I1
I0
I0
I668
tp820
F3.2
s(I0
I0
I518400
I542690
tp821
F2.5
s(I1
I1
I86400
I175674
tp822
F2.5
s(I1
I3
I259200
I213366
tp823
F2.5
s(I2
I1
I86400
I38390
tp824
F2.5
s(I1
I0
I0
I55
tp825
F3.2
s(I0
I0
I172800
I131944
tp826
F2.5
s(I1
I3
I172800
I2575
tp827
F2.5
s(I1
I3
I950400
I1041513
tp828
F2.5
s(I1
I7
I86400
I96068
tp829
F2.5
s(I1
I2
I432000
I186623
tp830
F2.5
s(I1
I9
I345600
I238742
tp831
F2.5
s(I0
I0
I86400
I105136
tp832
F2.5
s(I2
I0
I0
I121
tp833
F3.2
s(I1
I0
I0
I100009
tp834
F2.5
s(I13
I0
I0
I197
tp835
F3.2
s(I0
I0
I432000
I1129849
tp836
F2.5
s(I11
I0
I0
I1099
tp837
F2.5
s(I1
I0
I0
I613
tp838
F3.2
s(I2
I1
I172800
I92187
tp839
F2.5
s(I1
I5
I604800
I629572
tp840
F2.5
s(I10
I0
I0
I148
tp841
F3.2
s(I1
I3
I172800
I131952
tp842
F2.5
s(I1
I0
I0
I12825
tp843
F2.5
s(I0
I0
I604800
I314597
tp844
F2.5
s(I1
I1
I172800
I160085
tp845
F2.5
s(I4
I0
I0
I107
tp846
F3.2
s(I2
I0
I0
I1098
tp847
F3.2
s(I1
I3
I259200
I2634
tp848
F2.5
s(I2
I2
I604800
I1146543
tp849
F2.5
s(I1
I1
I86400
I90168
tp850
F2.5
s(I3
I0
I0
I54299
tp851
F2.5
s(I2
I0
I0
I86077
tp852
F2.5
s(I2
I6
I259200
I294138
tp853
F2.5
s(I12
I0
I0
I262
tp854
F3.2
s(I2
I0
I0
I240
tp855
F3.2
s(I1
I15
I86400
I64541
tp856
F2.5
s(I9
I0
I0
I99481
tp857
F2.5
s(I0
I0
I432000
I686317
tp858
F2.5
s(I1
I4
I950400
I958815
tp859
F2.5
s(I1
I2
I604800
I607204
tp860
F2.5
s(I1
I1
I259200
I262175
tp861
F2.5
s(I1
I0
I0
I13862
tp862
F2.5
s(I0
I0
I86400
I166318
tp863
F2.5
s(I0
I0
I518400
I473299
tp864
F2.5
s(I1
I0
I0
I13377
tp865
F2.5
s(I2
I0
I0
I25
tp866
F3.2
s(I1
I0
I0
I265
tp867
F3.2
s(I1
I3
I172800
I53585
tp868
F2.5
s(I4
I1
I86400
I72528
tp869
F2.5
s(I4
I0
I0
I13179
tp870
F2.5
s(I1
I2
I604800
I584709
tp871
F2.5
s(I1
I0
I0
I96
tp872
F3.2
s(I1
I2
I432000
I434144
tp873
F2.5
s(I3
I0
I0
I155
tp874
F3.2
s(I2
I0
I0
I395
tp875
F3.2
s(I1
I2
I604800
I568642
tp876
F2.5
s(I7
I0
I0
I66294
tp877
F2.5
s(I3
I2
I432000
I435905
tp878
F2.5
s(I1
I3
I950400
I969473
tp879
F2.5
s(I1
I3
I518400
I480872
tp880
F2.5
s(I1
I4
I172800
I106431
tp881
F2.5
s(I7
I0
I0
I993
tp882
F3.2
s(I1
I1
I86400
I13083
tp883
F2.5
s(I1
I3
I1209600
I1175883
tp884
F2.5
s(I8
I0
I0
I186
tp885
F3.2
s(I1
I0
I0
I590
tp886
F3.2
s(I8
I0
I0
I29682
tp887
F2.5
s(I6
I0
I0
I1259
tp888
F3.2
s(I1
I1
I172800
I131863
tp889
F2.5
s(I3
I2
I432000
I858465
tp890
F2.5
s(I4
I1
I86400
I56658
tp891
F2.5
s(I1
I6
I345600
I7862
tp892
F2.5
s(I1
I0
I0
I219
tp893
F3.2
s(I10
I0
I0
I305
tp894
F3.2
s(I3
I0
I0
I251
tp895
F3.2
s(I1
I1
I172800
I134974
tp896
F2.5
s(I11
I0
I0
I1337
tp897
F2.5
s(I12
I0
I0
I1255
tp898
F2.5
s(I0
I0
I172800
I171834
tp899
F2.5
s(I2
I0
I0
I48
tp900
F3.2
s(I1
I0
I0
I370
tp901
F3.2
s(I1
I2
I518400
I504812
tp902
F2.5
s(I5
I0
I0
I9427
tp903
F2.5
s(I1
I4
I86400
I44149
tp904
F2.5
s(I1
I0
I0
I558
tp905
F3.2
s(I0
I0
I172800
I156863
tp906
F2.5
s(I2
I2
I432000
I437113
tp907
F2.5
s(I1
I2
I432000
I884746
tp908
F2.5
s(I1
I16
I1728000
I1716281
tp909
F2.5
s(I0
I0
I86400
I164801
tp910
F2.5
s(I15
I0
I0
I281
tp911
F3.2
s(I7
I0
I0
I287
tp912
F3.2
s(I1
I2
I432000
I648289
tp913
F2.5
s(I2
I3
I950400
I875723
tp914
F2.5
s(I1
I10
I777600
I755852
tp915
F2.5
s(I1
I0
I0
I160
tp916
F3.2
s(I3
I0
I0
I91
tp917
F3.2
s(I8
I0
I0
I145
tp918
F3.2
s(I1
I4
I86400
I4325
tp919
F2.5
s(I1
I3
I1468800
I1318549
tp920
F2.5
s(I16
I0
I0
I2570
tp921
F2.5
s(I1
I5
I259200
I1301
tp922
F2.5
s(I0
I0
I604800
I624656
tp923
F2.5
s(I1
I0
I0
I466
tp924
F3.2
s(I1
I2
I604800
I646495
tp925
F2.5
s(I1
I13
I1296000
I1378520
tp926
F2.5
s(I1
I0
I0
I654
tp927
F3.2
s(I0
I0
I172800
I6226113
tp928
F2.5
s(I16
I0
I0
I96
tp929
F3.2
s(I1
I2
I604800
I610062
tp930
F2.5
s(I4
I0
I0
I194
tp931
F3.2
s(I18
I2
I604800
I609915
tp932
F2.5
s(I10
I2
I432000
I437703
tp933
F2.5
s(I19
I0
I0
I102816
tp934
F2.5
s(I1
I0
I0
I99743
tp935
F2.5
s(I0
I0
I172800
I167874
tp936
F2.5
s(I1
I0
I0
I347
tp937
F3.2
s(I2
I7
I259200
I209207
tp938
F2.5
s(I1
I1
I172800
I225
tp939
F2.5
s(I2
I1
I86400
I25677
tp940
F2.5
s(I0
I0
I86400
I125412
tp941
F2.5
s(I1
I1
I86400
I110271
tp942
F2.5
s(I18
I0
I0
I108
tp943
F2.5
s(I1
I1
I172800
I186802
tp944
F2.5
s(I20
I0
I0
I117
tp945
F2.5
s(I25
I0
I0
I799
tp946
F2.5
s(I2
I5
I950400
I1154704
tp947
F2.5
s(I10
I0
I0
I1635
tp948
F2.5
s(I2
I0
I0
I1321
tp949
F3.2
s(I15
I0
I0
I206
tp950
F3.2
s(I7
I0
I0
I292
tp951
F3.2
s(I5
I0
I0
I288
tp952
F3.2
s(I2
I2
I432000
I401975
tp953
F2.5
s(I3
I0
I0
I32
tp954
F3.2
s(I1
I6
I172800
I5499
tp955
F2.5
s(I0
I0
I2160000
I2159363
tp956
F2.5
s(I3
I0
I0
I85698
tp957
F2.5
s(I1
I1
I345600
I790381
tp958
F2.5
s(I3
I0
I0
I283
tp959
F3.2
s(I2
I0
I0
I11
tp960
F2.77
s(I1
I1
I86400
I26103
tp961
F2.5
s(I1
I4
I432000
I93497
tp962
F2.5
s(I3
I2
I432000
I450638
tp963
F2.5
s(I2
I2
I432000
I435714
tp964
F2.5
s(I4
I1
I86400
I80050
tp965
F2.5
s(I8
I0
I0
I337
tp966
F3.2
s(I21
I0
I0
I573
tp967
F2.5
s(I1
I2
I518400
I515120
tp968
F2.5
s(I3
I0
I0
I102549
tp969
F2.5
s(I1
I0
I0
I18
tp970
F3.2
s(I12
I0
I0
I131
tp971
F3.2
s(I4
I0
I0
I153
tp972
F3.2
s(I2
I0
I0
I381
tp973
F3.2
s(I13
I0
I0
I102285
tp974
F2.5
s(I6
I0
I0
I198
tp975
F3.2
s(I1
I14
I259200
I270849
tp976
F2.5
s(I1
I2
I604800
I600474
tp977
F2.5
s(I2
I0
I0
I130
tp978
F3.2
s(I1
I1
I172800
I14829
tp979
F2.5
s(I5
I0
I0
I95
tp980
F3.2
s(I4
I0
I0
I367
tp981
F3.2
s(I3
I0
I0
I575
tp982
F3.2
s(I3
I0
I0
I79249
tp983
F2.5
s(I10
I0
I0
I177
tp984
F3.2
s(I1
I2
I432000
I447074
tp985
F2.5
s(I6
I0
I0
I564
tp986
F3.2
s(I4
I0
I0
I16
tp987
F3.2
s(I1
I2
I518400
I542651
tp988
F2.5
s(I3
I1
I172800
I270456
tp989
F2.5
s(I7
I0
I0
I333
tp990
F3.2
s(I5
I0
I0
I11793
tp991
F2.5
s(I4
I0
I0
I5057
tp992
F2.5
s(I1
I2
I518400
I642212
tp993
F2.5
s(I2
I1
I172800
I105893
tp994
F2.5
s(I10
I0
I0
I291
tp995
F3.2
s(I1
I6
I86400
I96065
tp996
F2.5
s(I3
I1
I172800
I158461
tp997
F2.5
s(I5
I0
I0
I224
tp998
F3.2
s(I1
I1
I259200
I0
tp999
F2.5
s(I4
I2
I432000
I437632
tp1000
F2.5
s(I6
I0
I0
I102787
tp1001
F2.5
s(I2
I0
I0
I34
tp1002
F3.2
s(I1
I3
I691200
I722296
tp1003
F2.5
s(I7
I0
I0
I102615
tp1004
F2.5
s(I1
I5
I259200
I64
tp1005
F2.5
s(I1
I2
I432000
I419854
tp1006
F2.5
s(I1
I6
I86400
I35923
tp1007
F2.5
s(I0
I0
I86400
I78160
tp1008
F2.5
s(I1
I0
I0
I544
tp1009
F3.2
s(I2
I0
I0
I667
tp1010
F3.2
s(I1
I0
I0
I123
tp1011
F3.2
s(I2
I0
I0
I72924
tp1012
F2.5
s(I11
I0
I0
I248
tp1013
F3.2
s(I0
I0
I172800
I162730
tp1014
F2.5
s(I1
I5
I345600
I333534
tp1015
F2.5
s(I5
I0
I0
I361
tp1016
F3.2
s(I2
I1
I172800
I218237
tp1017
F2.5
s(I2
I1
I86400
I57141
tp1018
F2.5
s(I1
I0
I0
I850
tp1019
F3.2
s(I1
I1
I86400
I47641
tp1020
F2.5
s(I1
I6
I777600
I760087
tp1021
F2.5
s(I1
I1
I172800
I349012
tp1022
F2.5
s(I3
I0
I0
I105
tp1023
F3.2
s(I2
I0
I0
I189
tp1024
F3.2
s(I1
I2
I432000
I436773
tp1025
F2.5
s(I2
I0
I0
I34588
tp1026
F2.5
s(I1
I2
I432000
I858397
tp1027
F2.5
s(I5
I0
I0
I0
tp1028
F3.2
s(I4
I0
I0
I262
tp1029
F3.2
s(I3
I0
I0
I516
tp1030
F3.2
s(I1
I3
I1209600
I1175840
tp1031
F2.5
s(I3
I0
I0
I320
tp1032
F3.2
s(I0
I0
I172800
I92009
tp1033
F2.5
s(I1
I5
I432000
I3729
tp1034
F2.5
s(I1
I5
I1641600
I1893749
tp1035
F2.5
s(I8
I0
I0
I360
tp1036
F3.2
s(I1
I2
I432000
I15793
tp1037
F2.5
s(I1
I2
I604800
I715840
tp1038
F2.5
s(I18
I0
I0
I263
tp1039
F2.5
s(I1
I3
I950400
I940181
tp1040
F2.5
s(I1
I3
I604800
I698380
tp1041
F2.5
s(I4
I0
I0
I208
tp1042
F3.2
s(I3
I0
I0
I214
tp1043
F3.2
s(I1
I3
I432000
I2840
tp1044
F2.5
s(I2
I1
I86400
I790614
tp1045
F2.5
s(I5
I0
I0
I137
tp1046
F3.2
s(I1
I2
I604800
I609190
tp1047
F2.5
s(I1
I5
I259200
I142350
tp1048
F2.5
s(I1
I9
I259200
I265436
tp1049
F2.5
s(I1
I0
I0
I818
tp1050
F3.2
s(I1
I0
I0
I269
tp1051
F3.2
s(I2
I0
I0
I93
tp1052
F3.2
s(I1
I2
I518400
I682551
tp1053
F2.5
s(I2
I0
I0
I10518
tp1054
F2.5
s(I2
I2
I604800
I600955
tp1055
F2.5
s(I1
I1
I86400
I114903
tp1056
F2.5
s(I0
I0
I172800
I556162
tp1057
F2.5
s(I1
I4
I259200
I44223
tp1058
F2.5
s(I1
I1
I172800
I210889
tp1059
F2.5
s(I1
I7
I259200
I3286
tp1060
F2.5
s(I17
I0
I0
I176
tp1061
F3.2
s(I1
I2
I518400
I495112
tp1062
F2.5
s(I2
I0
I0
I77881
tp1063
F2.5
s(I0
I0
I518400
I858622
tp1064
F2.5
s(I4
I0
I0
I79
tp1065
F3.2
s(I1
I0
I0
I2047
tp1066
F2.5
s(I1
I1
I172800
I857060
tp1067
F2.5
s(I6
I0
I0
I16
tp1068
F1.3
s(I5
I0
I0
I274
tp1069
F3.2
s(I10
I1
I86400
I25463
tp1070
F2.5
s(I18
I0
I0
I359
tp1071
F2.5
s(I1
I6
I432000
I467965
tp1072
F2.5
s(I1
I9
I432000
I442526
tp1073
F2.5
s(I1
I2
I518400
I484303
tp1074
F2.5
s(I1
I1
I86400
I87517
tp1075
F2.5
s(I3
I0
I0
I54
tp1076
F3.2
s(I1
I9
I86400
I94803
tp1077
F2.5
s(I1
I2
I604800
I609222
tp1078
F2.5
s(I0
I0
I1728000
I1817399
tp1079
F2.5
s(I2
I4
I1123200
I1382244
tp1080
F2.5
s(I1
I0
I0
I914
tp1081
F3.2
s(I6
I0
I0
I92752
tp1082
F2.5
s(I1
I10
I1814400
I1543110
tp1083
F2.5
s(I2
I1
I86400
I38688
tp1084
F2.5
s(I2
I1
I86400
I48146
tp1085
F2.5
s(I0
I0
I86400
I112925
tp1086
F2.5
s(I1
I2
I604800
I584729
tp1087
F2.5
s(I0
I0
I1900800
I1874264
tp1088
F2.5
s(I2
I9
I432000
I801116
tp1089
F2.5
s(I10
I0
I0
I72466
tp1090
F2.5
s(I4
I0
I0
I239
tp1091
F3.2
s(I3
I0
I0
I191
tp1092
F3.2
s(I1
I15
I1468800
I1557896
tp1093
F2.5
s(I1
I3
I1382400
I1317527
tp1094
F2.5
s(I1
I4
I432000
I37
tp1095
F2.5
s(I1
I1
I172800
I884311
tp1096
F2.5
s(I2
I0
I0
I116
tp1097
F3.2
s(I1
I3
I259200
I169
tp1098
F2.5
s(I0
I0
I172800
I123484
tp1099
F2.5
s(I2
I1
I172800
I171813
tp1100
F2.5
s(I1
I5
I86400
I44082
tp1101
F2.5
s(I1
I0
I0
I397
tp1102
F3.2
s(I3
I1
I86400
I88314
tp1103
F2.5
s(I1
I1
I172800
I71066
tp1104
F2.5
s(I2
I3
I1382400
I1499519
tp1105
F2.5
s(I4
I0
I0
I102
tp1106
F3.2
s(I2
I0
I0
I486
tp1107
F3.2
s(I1
I4
I345600
I209321
tp1108
F2.5
s(I21
I0
I0
I687
tp1109
F2.5
s(I6
I0
I0
I75
tp1110
F3.2
s(I0
I0
I172800
I134
tp1111
F2.5
s(I1
I1
I86400
I36660
tp1112
F2.5
s(I3
I1
I86400
I166023
tp1113
F2.5
s(I1
I1
I345600
I306453
tp1114
F2.5
s(I0
I0
I172800
I44181
tp1115
F2.5
s(I3
I0
I0
I31
tp1116
F3.2
s(I1
I4
I691200
I759477
tp1117
F2.5
s(I0
I0
I777600
I767777
tp1118
F2.5
s(I4
I0
I0
I756
tp1119
F3.2
s(I0
I0
I518400
I314573
tp1120
F2.5
s(I2
I1
I86400
I88238
tp1121
F2.5
s(I7
I0
I0
I169
tp1122
F3.2
s(I1
I3
I777600
I1082574
tp1123
F2.5
s(I2
I0
I0
I20
tp1124
F3.2
s(I1
I2
I518400
I504768
tp1125
F2.5
s(I2
I0
I0
I217530
tp1126
F2.5
s(I11
I0
I0
I391
tp1127
F3.2
s(I1
I8
I604800
I241583
tp1128
F2.5
s(I1
I6
I86400
I7846
tp1129
F2.5
s(I4
I1
I172800
I175208
tp1130
F2.5
s(I2
I1
I172800
I883623
tp1131
F2.5
s(I3
I0
I0
I66632
tp1132
F2.5
s(I1
I4
I2419200
I2434112
tp1133
F2.5
s(I1
I1
I86400
I153098
tp1134
F2.5
s(I9
I0
I0
I195
tp1135
F3.2
s(I1
I2
I604800
I610242
tp1136
F2.5
s(I19
I0
I0
I368
tp1137
F2.5
s(I12
I0
I0
I184
tp1138
F3.2
s(I4
I0
I0
I134
tp1139
F3.2
s(I3
I0
I0
I132
tp1140
F3.2
s(I1
I2
I604800
I601471
tp1141
F2.5
s(I3
I1
I86400
I36276
tp1142
F2.5
s(I1
I2
I604800
I609294
tp1143
F2.5
s(I3
I1
I86400
I128137
tp1144
F2.5
s(I5
I0
I0
I347
tp1145
F3.2
s(I1
I1
I86400
I89973
tp1146
F2.5
s(I27
I0
I0
I237
tp1147
F2.5
s(I3
I0
I0
I127
tp1148
F3.2
s(I2
I0
I0
I175
tp1149
F3.2
s(I1
I10
I172800
I156413
tp1150
F2.5
s(I11
I0
I0
I1213
tp1151
F2.5
s(I1
I3
I864000
I856797
tp1152
F2.5
s(I0
I0
I86400
I165776
tp1153
F2.5
s(I1
I2
I518400
I476667
tp1154
F2.5
s(I1
I0
I0
I690
tp1155
F3.2
s(I3
I0
I0
I9595
tp1156
F2.5
s(I23
I0
I0
I105544
tp1157
F2.5
s(I2
I0
I0
I13200
tp1158
F2.5
s(I3
I0
I0
I228
tp1159
F3.2
s(I2
I0
I0
I294
tp1160
F3.2
s(I1
I3
I86400
I49293
tp1161
F2.5
s(I1
I10
I86400
I40913
tp1162
F2.5
s(I0
I0
I86400
I78375
tp1163
F2.5
s(I1
I2
I432000
I392875
tp1164
F2.5
s(I1
I3
I691200
I687647
tp1165
F2.5
s(I1
I7
I259200
I92802
tp1166
F2.5
s(I1
I1
I86400
I87412
tp1167
F2.5
s(I2
I0
I0
I79
tp1168
F3.2
s(I1
I1
I86400
I1782
tp1169
F2.5
s(I0
I0
I518400
I0
tp1170
F2.5
s(I9
I0
I0
I561
tp1171
F3.2
s(I7
I0
I0
I489
tp1172
F3.2
s(I2
I1
I86400
I80221
tp1173
F2.5
s(I1
I0
I0
I86
tp1174
F3.2
s(I1
I9
I259200
I3038
tp1175
F2.5
s(I2
I0
I0
I433
tp1176
F3.2
s(I0
I0
I172800
I39632
tp1177
F2.5
s(I5
I0
I0
I268
tp1178
F3.2
s(I1
I0
I0
I173
tp1179
F3.2
s(I3
I0
I0
I68
tp1180
F3.2
s(I2
I0
I0
I198
tp1181
F3.2
s(I2
I0
I0
I238600
tp1182
F2.5
s(I1
I3
I950400
I1106244
tp1183
F2.5
s(I2
I0
I0
I34617
tp1184
F2.5
s(I1
I2
I432000
I44193
tp1185
F2.5
s(I6
I0
I0
I363
tp1186
F3.2
s(I5
I0
I0
I27
tp1187
F3.2
s(I1
I1
I86400
I106007
tp1188
F2.5
s(I1
I0
I0
I1123
tp1189
F3.2
s(I0
I0
I86400
I25413
tp1190
F2.5
s(I1
I1
I86400
I115228
tp1191
F2.5
s(I1
I2
I432000
I398885
tp1192
F2.5
s(I1
I3
I1036800
I1003453
tp1193
F2.5
s(I1
I2
I518400
I479432
tp1194
F2.5
s(I1
I3
I86400
I40790
tp1195
F2.5
s(I2
I1
I172800
I177893
tp1196
F2.5
s(I8
I0
I0
I333
tp1197
F3.2
s(I1
I0
I0
I667
tp1198
F3.2
s(I1
I0
I0
I3712
tp1199
F2.5
s(I16
I0
I0
I364
tp1200
F2.5
s(I0
I0
I86400
I90001
tp1201
F2.5
s(I1
I10
I432000
I442537
tp1202
F2.5
s(I14
I0
I0
I120
tp1203
F3.2
s(I2
I1
I86400
I73434
tp1204
F2.5
s(I1
I5
I1814400
I1723691
tp1205
F2.5
s(I1
I2
I604800
I595737
tp1206
F2.5
s(I0
I0
I432000
I396235
tp1207
F2.5
s(I24
I0
I0
I408
tp1208
F2.5
s(I8
I0
I0
I196
tp1209
F3.2
s(I15
I0
I0
I56
tp1210
F1.3
s(I32
I0
I0
I86093
tp1211
F2.5
s(I1
I2
I604800
I655231
tp1212
F2.5
s(I1
I3
I172800
I131953
tp1213
F2.5
s(I0
I0
I950400
I1728336
tp1214
F2.5
s(I0
I0
I777600
I975356
tp1215
F2.5
s(I0
I0
I172800
I106063
tp1216
F2.5
s(I3
I2
I432000
I420044
tp1217
F2.5
s(I15
I0
I0
I195
tp1218
F3.2
s(I1
I0
I0
I13673
tp1219
F2.5
s(I3
I0
I0
I45
tp1220
F3.2
s(I1
I4
I172800
I44144
tp1221
F2.5
s(I6
I0
I0
I322
tp1222
F3.2
s(I2
I2
I432000
I424011
tp1223
F2.5
s(I1
I16
I1382400
I1499523
tp1224
F2.5
s(I1
I6
I259200
I276485
tp1225
F2.5
s(I6
I2
I604800
I534985
tp1226
F2.5
s(I1
I11
I432000
I444095
tp1227
F2.5
s(I1
I4
I259200
I53694
tp1228
F2.5
s(I3
I0
I0
I260
tp1229
F3.2
s(I2
I0
I0
I6
tp1230
F2.22
s(I1
I3
I172800
I53586
tp1231
F2.5
s(I1
I6
I1641600
I1453021
tp1232
F2.5
s(I1
I9
I604800
I604965
tp1233
F2.5
s(I3
I1
I86400
I47858
tp1234
F2.5
s(I0
I0
I172800
I186816
tp1235
F2.5
s(I1
I0
I0
I31
tp1236
F3.2
s(I3
I0
I0
I40231
tp1237
F2.5
s(I9
I0
I0
I35039
tp1238
F2.5
s(I3
I0
I0
I25547
tp1239
F2.5
s(I1
I11
I432000
I467931
tp1240
F2.5
s(I1
I2
I518400
I524338
tp1241
F2.5
s(I1
I2
I518400
I515284
tp1242
F2.5
s(I2
I10
I172800
I172561
tp1243
F2.5
s(I1
I1
I432000
I423508
tp1244
F2.5
s(I1
I2
I604800
I600471
tp1245
F2.5
s(I1
I9
I1296000
I1650243
tp1246
F2.5
s(I1
I2
I604800
I199845
tp1247
F2.5
s(I2
I0
I0
I145
tp1248
F3.2
s(I0
I0
I172800
I139518
tp1249
F2.5
s(I1
I2
I432000
I858481
tp1250
F2.5
s(I0
I0
I172800
I171039
tp1251
F2.5
s(I1
I0
I0
I1068
tp1252
F3.2
s(I5
I2
I518400
I505897
tp1253
F2.5
s(I2
I1
I172800
I175054
tp1254
F2.5
s(I1
I0
I0
I589
tp1255
F3.2
s(I5
I0
I0
I711
tp1256
F3.2
s(I1
I1
I86400
I69594
tp1257
F2.5
s(I4
I0
I0
I77887
tp1258
F2.5
s(I1
I0
I0
I488
tp1259
F3.2
s(I27
I0
I0
I2528
tp1260
F2.5
s(I1
I2
I432000
I362739
tp1261
F2.5
s(I4
I0
I0
I3
tp1262
F3.2
s(I6
I0
I0
I91
tp1263
F3.2
s(I1
I1
I172800
I402827
tp1264
F2.5
s(I2
I6
I259200
I198857
tp1265
F2.5
s(I1
I0
I0
I255
tp1266
F3.2
s(I5
I0
I0
I945
tp1267
F3.2
s(I2
I4
I172800
I106429
tp1268
F2.5
s(I1
I7
I691200
I722238
tp1269
F2.5
s(I1
I1
I86400
I102428
tp1270
F2.5
s(I6
I0
I0
I170163
tp1271
F2.5
s(I2
I1
I172800
I170843
tp1272
F2.5
s(I1
I10
I1036800
I1003563
tp1273
F2.5
s(I1
I5
I345600
I3676
tp1274
F2.5
s(I1
I9
I345600
I3036
tp1275
F2.5
s(I1
I0
I0
I982
tp1276
F3.2
s(I7
I0
I0
I204
tp1277
F3.2
s(I1
I9
I172800
I104050
tp1278
F2.5
s(I0
I0
I432000
I6180117
tp1279
F2.5
s(I2
I0
I0
I49
tp1280
F3.2
s(I1
I0
I0
I369
tp1281
F3.2
s(I1
I2
I518400
I479422
tp1282
F2.5
s(I1
I11
I172800
I172567
tp1283
F2.5
s(I4
I0
I0
I442
tp1284
F3.2
s(I7
I0
I0
I10144
tp1285
F2.5
s(I3
I2
I518400
I495824
tp1286
F2.5
s(I1
I1
I86400
I210876
tp1287
F2.5
s(I0
I0
I86400
I58706
tp1288
F2.5
s(I2
I1
I172800
I146524
tp1289
F2.5
s(I1
I3
I604800
I592995
tp1290
F2.5
s(I1
I2
I604800
I604151
tp1291
F2.5
s(I0
I0
I172800
I218849
tp1292
F2.5
s(I1
I2
I432000
I648288
tp1293
F2.5
s(I3
I0
I0
I1310
tp1294
F3.2
s(I20
I0
I0
I4988
tp1295
F2.5
s(I1
I6
I259200
I142379
tp1296
F2.5
s(I1
I3
I432000
I641860
tp1297
F2.5
s(I1
I1
I86400
I115393
tp1298
F2.5
s(I1
I1
I86400
I91316
tp1299
F2.5
s(I2
I1
I86400
I87511
tp1300
F2.5
s(I1
I0
I0
I1045
tp1301
F3.2
s(I14
I2
I518400
I479697
tp1302
F2.5
s(I1
I1
I172800
I324451
tp1303
F2.5
s(I1
I1
I172800
I169901
tp1304
F2.5
s(I1
I8
I864000
I830497
tp1305
F2.5
s(I2
I1
I86400
I37912
tp1306
F2.5
s(I10
I0
I0
I103
tp1307
F3.2
s(I3
I0
I0
I85999
tp1308
F2.5
s(I8
I0
I0
I5058
tp1309
F2.5
s(I1
I0
I0
I40
tp1310
F3.2
s(I1
I9
I172800
I156405
tp1311
F2.5
s(I26
I0
I0
I389
tp1312
F2.5
s(I11
I0
I0
I85
tp1313
F3.2
s(I4
I0
I0
I195
tp1314
F3.2
s(I3
I0
I0
I195
tp1315
F3.2
s(I1
I0
I0
I99907
tp1316
F2.5
s(I1
I6
I86400
I96059
tp1317
F2.5
s(I16
I0
I0
I115
tp1318
F3.2
s(I1
I7
I86400
I96059
tp1319
F2.5
s(I1
I7
I259200
I2362
tp1320
F2.5
s(I2
I0
I0
I104
tp1321
F3.2
s(I1
I3
I1036800
I1497722
tp1322
F2.5
s(I7
I1
I172800
I323435
tp1323
F2.5
s(I4
I0
I0
I337
tp1324
F3.2
s(I1
I0
I0
I13545
tp1325
F2.5
s(I18
I0
I0
I109
tp1326
F2.5
s(I1
I2
I518400
I495109
tp1327
F2.5
s(I1
I6
I172800
I44141
tp1328
F2.5
s(I4
I0
I0
I122
tp1329
F3.2
s(I2
I2
I604800
I595982
tp1330
F2.5
s(I1
I5
I86400
I13
tp1331
F2.5
s(I23
I0
I0
I686
tp1332
F2.5
s(I1
I2
I604800
I186624
tp1333
F2.5
s(I3
I0
I0
I35
tp1334
F3.2
s(I2
I0
I0
I227
tp1335
F3.2
s(I1
I8
I691200
I649580
tp1336
F2.5
s(I2
I1
I172800
I92666
tp1337
F2.5
s(I6
I0
I0
I332
tp1338
F3.2
s(I1
I0
I0
I1150
tp1339
F3.2
s(I1
I13
I518400
I558743
tp1340
F2.5
s(I7
I0
I0
I181
tp1341
F3.2
s(I1
I3
I1641600
I1893697
tp1342
F2.5
s(I3
I0
I0
I282
tp1343
F3.2
s(I2
I0
I0
I8
tp1344
F2.37
s(I1
I1
I259200
I302324
tp1345
F2.5
s(I6
I2
I432000
I424179
tp1346
F2.5
s(I1
I2
I518400
I525081
tp1347
F2.5
s(I2
I1
I86400
I157100
tp1348
F2.5
s(I23
I0
I0
I208
tp1349
F2.5
s(I14
I0
I0
I324
tp1350
F3.2
s(I1
I13
I1209600
I1380235
tp1351
F2.5
s(I0
I0
I86400
I105116
tp1352
F2.5
s(I1
I1
I172800
I191226
tp1353
F2.5
s(I1
I5
I1382400
I1650246
tp1354
F2.5
s(I4
I0
I0
I154
tp1355
F3.2
s(I1
I2
I604800
I941765
tp1356
F2.5
s(I1
I7
I172800
I92688
tp1357
F2.5
s(I6
I0
I0
I72577
tp1358
F2.5
s(I3
I0
I0
I387
tp1359
F3.2
s(I1
I1
I86400
I37303
tp1360
F2.5
s(I30
I0
I0
I318
tp1361
F2.5
s(I2
I1
I86400
I80758
tp1362
F2.5
s(I3
I0
I0
I574
tp1363
F3.2
s(I9
I0
I0
I757
tp1364
F3.2
s(I0
I0
I172800
I294769
tp1365
F2.5
s(I1
I4
I86400
I44147
tp1366
F2.5
s(I2
I3
I172800
I2623
tp1367
F2.5
s(I1
I1
I86400
I157491
tp1368
F2.5
s(I2
I0
I0
I10341
tp1369
F2.5
s(I2
I2
I432000
I437925
tp1370
F2.5
s(I2
I2
I518400
I642436
tp1371
F2.5
s(I1
I2
I518400
I542650
tp1372
F2.5
s(I15
I0
I0
I230
tp1373
F3.2
s(I1
I2
I432000
I443136
tp1374
F2.5
s(I6
I0
I0
I94
tp1375
F3.2
s(I0
I0
I172800
I310640
tp1376
F2.5
s(I20
I0
I0
I5058
tp1377
F2.5
s(I3
I0
I0
I8
tp1378
F2.84
s(I4
I0
I0
I260215
tp1379
F2.5
s(I1
I2
I432000
I436868
tp1380
F2.5
s(I2
I1
I172800
I92627
tp1381
F2.5
s(I1
I2
I432000
I392847
tp1382
F2.5
s(I2
I4
I2073600
I2040900
tp1383
F2.5
s(I2
I2
I518400
I479705
tp1384
F2.5
s(I1
I3
I1209600
I1326788
tp1385
F2.5
s(I5
I0
I0
I66234
tp1386
F2.5
s(I26
I0
I0
I165
tp1387
F2.5
s(I18
I0
I0
I191
tp1388
F2.5
s(I2
I0
I0
I35
tp1389
F3.2
s(I1
I7
I432000
I3518
tp1390
F2.5
s(I5
I0
I0
I157889
tp1391
F2.5
s(I2
I1
I86400
I85362
tp1392
F2.5
s(I3
I0
I0
I79
tp1393
F3.2
s(I0
I0
I86400
I128340
tp1394
F2.5
s(I5
I0
I0
I593
tp1395
F3.2
s(I3
I0
I0
I1077
tp1396
F3.2
s(I8
I0
I0
I77
tp1397
F3.2
s(I1
I9
I432000
I466487
tp1398
F2.5
s(I1
I0
I0
I122
tp1399
F3.2
s(I4
I0
I0
I177
tp1400
F3.2
s(I2
I0
I0
I405
tp1401
F3.2
s(I3
I0
I0
I36527
tp1402
F2.5
s(I1
I5
I950400
I975361
tp1403
F2.5
s(I2
I0
I0
I13515
tp1404
F2.5
s(I1
I0
I0
I849
tp1405
F3.2
s(I19
I0
I0
I84
tp1406
F1.3
s(I3
I0
I0
I104
tp1407
F3.2
s(I2
I0
I0
I186
tp1408
F3.2
s(I2
I0
I0
I34589
tp1409
F2.5
s(I1
I6
I172800
I106169
tp1410
F2.5
s(I1
I1
I432000
I419397
tp1411
F2.5
s(I2
I1
I86400
I35270
tp1412
F2.5
s(I1
I7
I1123200
I1648597
tp1413
F2.5
s(I2
I1
I86400
I113138
tp1414
F2.5
s(I0
I0
I864000
I975354
tp1415
F2.5
s(I25
I0
I0
I105527
tp1416
F2.5
s(I3
I0
I0
I95
tp1417
F3.2
s(I1
I3
I950400
I1041565
tp1418
F2.5
s(I17
I0
I0
I13150
tp1419
F2.5
s(I3
I1
I172800
I171204
tp1420
F2.5
s(I1
I5
I86400
I44161
tp1421
F2.5
s(I1
I0
I0
I218
tp1422
F3.2
s(I2
I1
I86400
I120759
tp1423
F2.5
s(I3
I0
I0
I209
tp1424
F3.2
s(I2
I4
I2678400
I2824285
tp1425
F2.5
s(I15
I0
I0
I422
tp1426
F2.5
s(I1
I3
I1209600
I1719542
tp1427
F2.5
s(I1
I0
I0
I175451
tp1428
F2.5
s(I2
I1
I172800
I134776
tp1429
F2.5
s(I10
I0
I0
I519
tp1430
F3.2
s(I1
I8
I259200
I2950
tp1431
F2.5
s(I1
I8
I432000
I2810
tp1432
F2.5
s(I2
I0
I0
I90
tp1433
F3.2
s(I1
I5
I345600
I333572
tp1434
F2.5
s(I12
I0
I0
I985
tp1435
F2.5
s(I1
I9
I86400
I14790
tp1436
F2.5
s(I3
I0
I0
I615
tp1437
F3.2
s(I1
I0
I0
I99559
tp1438
F2.5
s(I0
I0
I172800
I105993
tp1439
F2.5
s(I4
I0
I0
I780
tp1440
F3.2
s(I4
I0
I0
I77892
tp1441
F2.5
s(I1
I2
I518400
I495115
tp1442
F2.5
s(I1
I0
I0
I419
tp1443
F3.2
s(I1
I3
I86400
I35822
tp1444
F2.5
s(I3
I2
I518400
I1146355
tp1445
F2.5
s(I4
I0
I0
I72
tp1446
F3.2
s(I1
I9
I259200
I214247
tp1447
F2.5
s(I1
I2
I604800
I44289
tp1448
F2.5
s(I1
I3
I172800
I53620
tp1449
F2.5
s(I2
I0
I0
I72529
tp1450
F2.5
s(I5
I0
I0
I273
tp1451
F3.2
s(I0
I0
I86400
I56665
tp1452
F2.5
s(I3
I0
I0
I49
tp1453
F3.2
s(I2
I0
I0
I213
tp1454
F3.2
s(I0
I0
I86400
I102135
tp1455
F2.5
s(I1
I0
I0
I913
tp1456
F3.2
s(I7
I0
I0
I131
tp1457
F3.2
s(I1
I2
I432000
I419741
tp1458
F2.5
s(I10
I0
I0
I0
tp1459
F1.3
s(I1
I4
I172800
I156567
tp1460
F2.5
s(I1
I2
I518400
I479429
tp1461
F2.5
s(I0
I0
I518400
I199645
tp1462
F2.5
s(I13
I0
I0
I72575
tp1463
F2.5
s(I1
I0
I0
I102415
tp1464
F2.5
s(I1
I0
I0
I744
tp1465
F3.2
s(I1
I8
I86400
I10367
tp1466
F2.5
s(I1
I1
I86400
I37431
tp1467
F2.5
s(I1
I8
I1209600
I1175901
tp1468
F2.5
s(I3
I0
I0
I77778
tp1469
F2.5
s(I1
I12
I172800
I156540
tp1470
F2.5
s(I3
I0
I0
I190
tp1471
F3.2
s(I2
I0
I0
I364
tp1472
F3.2
s(I1
I12
I1900800
I1722333
tp1473
F2.5
s(I6
I0
I0
I10112
tp1474
F2.5
s(I6
I0
I0
I241
tp1475
F3.2
s(I3
I0
I0
I126285
tp1476
F2.5
s(I32
I0
I0
I156
tp1477
F2.5
s(I1
I0
I0
I794
tp1478
F3.2
s(I5
I0
I0
I788
tp1479
F3.2
s(I2
I0
I0
I117
tp1480
F3.2
s(I1
I8
I432000
I464157
tp1481
F2.5
s(I1
I5
I172800
I44181
tp1482
F2.5
s(I1
I4
I2505600
I2587406
tp1483
F2.5
s(I2
I1
I172800
I134968
tp1484
F2.5
s(I31
I0
I0
I161
tp1485
F2.5
s(I1
I4
I86400
I44157
tp1486
F2.5
s(I7
I0
I0
I35
tp1487
F3.2
s(I0
I0
I172800
I106064
tp1488
F2.5
s(I1
I0
I0
I89487
tp1489
F2.5
s(I3
I0
I0
I239034
tp1490
F2.5
s(I1
I19
I1036800
I999901
tp1491
F2.5
s(I1
I2
I432000
I436996
tp1492
F2.5
s(I4
I0
I0
I103
tp1493
F3.2
s(I1
I4
I86400
I40844
tp1494
F2.5
s(I1
I4
I345600
I209320
tp1495
F2.5
s(I5
I0
I0
I314
tp1496
F3.2
s(I12
I0
I0
I114308
tp1497
F2.5
s(I1
I3
I1036800
I1041429
tp1498
F2.5
s(I1
I1
I86400
I37783
tp1499
F2.5
s(I1
I2
I518400
I91654
tp1500
F2.5
s(I1
I2
I604800
I686334
tp1501
F2.5
s(I1
I0
I0
I13686
tp1502
F2.5
s(I2
I0
I0
I268
tp1503
F3.2
s(I1
I4
I86400
I41012
tp1504
F2.5
s(I1
I2
I518400
I513003
tp1505
F2.5
s(I6
I0
I0
I337
tp1506
F3.2
s(I7
I0
I0
I10115
tp1507
F2.5
s(I0
I0
I86400
I59713
tp1508
F2.5
s(I0
I0
I86400
I166290
tp1509
F2.5
s(I0
I0
I172800
I157027
tp1510
F2.5
s(I17
I0
I0
I321
tp1511
F2.5
s(I2
I0
I0
I21
tp1512
F3.2
s(I1
I0
I0
I277
tp1513
F3.2
s(I1
I5
I172800
I4359
tp1514
F2.5
s(I4
I1
I172800
I146700
tp1515
F2.5
s(I1
I2
I432000
I984359
tp1516
F2.5
s(I0
I0
I172800
I145485
tp1517
F2.5
s(I11
I0
I0
I390
tp1518
F3.2
s(I4
I0
I0
I414
tp1519
F3.2
s(I3
I1
I86400
I56785
tp1520
F2.5
s(I0
I0
I86400
I77245
tp1521
F2.5
s(I1
I1
I86400
I15518
tp1522
F2.5
s(I1
I5
I86400
I44115
tp1523
F2.5
s(I18
I1
I172800
I269423
tp1524
F2.5
s(I1
I0
I0
I108
tp1525
F3.2
s(I6
I0
I0
I72349
tp1526
F2.5
s(I4
I0
I0
I135
tp1527
F3.2
s(I6
I0
I0
I40
tp1528
F3.2
s(I8
I0
I0
I77562
tp1529
F2.5
s(I1
I3
I172800
I25998
tp1530
F2.5
s(I2
I0
I0
I172
tp1531
F3.2
s(I3
I0
I0
I2591
tp1532
F2.5
s(I6
I0
I0
I305
tp1533
F3.2
s(I5
I0
I0
I113
tp1534
F3.2
s(I16
I0
I0
I136
tp1535
F3.2
s(I0
I0
I604800
I582102
tp1536
F2.5
s(I1
I0
I0
I602
tp1537
F3.2
s(I2
I2
I518400
I484304
tp1538
F2.5
s(I6
I1
I86400
I35388
tp1539
F2.5
s(I3
I0
I0
I1200
tp1540
F3.2
s(I2
I2
I604800
I1067826
tp1541
F2.5
s(I3
I0
I0
I337
tp1542
F3.2
s(I1
I3
I172800
I131915
tp1543
F2.5
s(I1
I0
I0
I501
tp1544
F3.2
s(I1
I6
I518400
I489859
tp1545
F2.5
s(I1
I6
I345600
I7866
tp1546
F2.5
s(I7
I0
I0
I355
tp1547
F3.2
s(I1
I3
I950400
I1326544
tp1548
F2.5
s(I1
I3
I950400
I856600
tp1549
F2.5
s(I1
I1
I86400
I90119
tp1550
F2.5
s(I1
I2
I432000
I445834
tp1551
F2.5
s(I3
I0
I0
I231
tp1552
F3.2
s(I10
I0
I0
I1174
tp1553
F2.5
s(I18
I1
I86400
I57132
tp1554
F2.5
s(I3
I0
I0
I79092
tp1555
F2.5
s(I1
I7
I259200
I106527
tp1556
F2.5
s(I5
I0
I0
I10147
tp1557
F2.5
s(I6
I0
I0
I1581
tp1558
F2.5
s(I17
I0
I0
I362
tp1559
F2.5
s(I2
I0
I0
I76
tp1560
F3.2
s(I0
I0
I518400
I6233748
tp1561
F2.5
s(I8
I0
I0
I238
tp1562
F3.2
s(I12
I0
I0
I1284
tp1563
F2.5
s(I1
I3
I864000
I786631
tp1564
F2.5
s(I1
I10
I259200
I3616
tp1565
F2.5
s(I3
I0
I0
I212
tp1566
F3.2
s(I1
I0
I0
I85
tp1567
F3.2
s(I4
I0
I0
I94
tp1568
F3.2
s(I1
I1
I172800
I324771
tp1569
F2.5
s(I17
I0
I0
I99677
tp1570
F2.5
s(I1
I2
I518400
I91603
tp1571
F2.5
s(I5
I0
I0
I259
tp1572
F3.2
s(I24
I0
I0
I848
tp1573
F2.5
s(I1
I2
I604800
I648790
tp1574
F2.5
s(I3
I0
I0
I71
tp1575
F3.2
s(I2
I0
I0
I199
tp1576
F3.2
s(I6
I0
I0
I360
tp1577
F3.2
s(I5
I0
I0
I26
tp1578
F3.2
s(I1
I5
I259200
I44177
tp1579
F2.5
s(I2
I0
I0
I1411
tp1580
F3.2
s(I7
I0
I0
I145
tp1581
F3.2
s(I35
I0
I0
I2487
tp1582
F2.5
s(I4
I0
I0
I85929
tp1583
F2.5
s(I1
I10
I518400
I559352
tp1584
F2.5
s(I1
I5
I432000
I93494
tp1585
F2.5
s(I3
I3
I950400
I1326564
tp1586
F2.5
s(I1
I0
I0
I53
tp1587
F3.2
s(I1
I1
I172800
I2450
tp1588
F2.5
s(I19
I0
I0
I2587
tp1589
F2.5
s(I2
I2
I432000
I420103
tp1590
F2.5
s(I1
I1
I172800
I161539
tp1591
F2.5
s(I8
I0
I0
I808
tp1592
F3.2
s(I1
I4
I172800
I44183
tp1593
F2.5
s(I2
I16
I259200
I375272
tp1594
F2.5
s(I13
I0
I0
I329
tp1595
F3.2
s(I1
I1
I172800
I157487
tp1596
F2.5
s(I1
I7
I172800
I156414
tp1597
F2.5
s(I3
I0
I0
I79069
tp1598
F2.5
s(I0
I0
I86400
I166336
tp1599
F2.5
s(I12
I0
I0
I66618
tp1600
F2.5
s(I2
I0
I0
I103
tp1601
F3.2
s(I1
I3
I518400
I341238
tp1602
F2.5
s(I1
I9
I432000
I3862
tp1603
F2.5
s(I11
I0
I0
I72422
tp1604
F2.5
s(I4
I0
I0
I13093
tp1605
F2.5
s(I1
I1
I86400
I37911
tp1606
F2.5
s(I1
I5
I1555200
I1754044
tp1607
F2.5
s(I0
I0
I518400
I858580
tp1608
F2.5
s(I10
I0
I0
I79316
tp1609
F2.5
s(I4
I0
I0
I117
tp1610
F3.2
s(I22
I2
I518400
I495918
tp1611
F2.5
s(I1
I6
I86400
I40782
tp1612
F2.5
s(I12
I0
I0
I580
tp1613
F3.2
s(I1
I4
I518400
I42
tp1614
F2.5
s(I1
I8
I86400
I2352
tp1615
F2.5
s(I1
I4
I1900800
I2011056
tp1616
F2.5
s(I2
I1
I86400
I112807
tp1617
F2.5
s(I1
I11
I864000
I850107
tp1618
F2.5
s(I3
I2
I518400
I495278
tp1619
F2.5
s(I3
I0
I0
I44
tp1620
F3.2
s(I1
I4
I172800
I44151
tp1621
F2.5
s(I1
I1
I86400
I56777
tp1622
F2.5
s(I1
I2
I432000
I199595
tp1623
F2.5
s(I2
I1
I172800
I324688
tp1624
F2.5
s(I6
I0
I0
I323
tp1625
F3.2
s(I5
I0
I0
I195
tp1626
F3.2
s(I1
I0
I0
I1099
tp1627
F3.2
s(I1
I2
I518400
I490089
tp1628
F2.5
s(I1
I3
I864000
I861511
tp1629
F2.5
s(I3
I0
I0
I263
tp1630
F3.2
s(I2
I0
I0
I7
tp1631
F2.28
s(I1
I2
I518400
I504785
tp1632
F2.5
s(I3
I0
I0
I85921
tp1633
F2.5
s(I1
I1
I345600
I309176
tp1634
F2.5
s(I1
I12
I604800
I616537
tp1635
F2.5
s(I8
I0
I0
I293
tp1636
F3.2
s(I22
I0
I0
I225
tp1637
F2.5
s(I1
I10
I86400
I2519
tp1638
F2.5
s(I4
I0
I0
I841
tp1639
F3.2
s(I1
I2
I604800
I97950
tp1640
F2.5
s(I1
I2
I432000
I186624
tp1641
F2.5
s(I1
I1
I86400
I294606
tp1642
F2.5
s(I1
I0
I0
I30
tp1643
F3.2
s(I1
I2
I604800
I625628
tp1644
F2.5
s(I4
I0
I0
I149
tp1645
F3.2
s(I3
I0
I0
I149
tp1646
F3.2
s(I2
I0
I0
I393
tp1647
F3.2
s(I3
I2
I604800
I595985
tp1648
F2.5
s(I1
I1
I172800
I157623
tp1649
F2.5
s(I1
I0
I0
I13768
tp1650
F2.5
s(I1
I2
I604800
I600470
tp1651
F2.5
s(I3
I0
I0
I396
tp1652
F3.2
s(I1
I2
I432000
I436864
tp1653
F2.5
s(I1
I1
I172800
I172511
tp1654
F2.5
s(I7
I0
I0
I177225
tp1655
F2.5
s(I5
I0
I0
I99
tp1656
F3.2
s(I8
I0
I0
I188
tp1657
F3.2
s(I1
I7
I1641600
I1492975
tp1658
F2.5
s(I1
I1
I172800
I177930
tp1659
F2.5
s(I1
I0
I0
I487
tp1660
F3.2
s(I4
I0
I0
I12
tp1661
F3.2
s(I3
I0
I0
I770
tp1662
F3.2
s(I0
I0
I86400
I111069
tp1663
F2.5
s(I2
I0
I0
I217609
tp1664
F2.5
s(I1
I3
I950400
I1326574
tp1665
F2.5
s(I1
I5
I86400
I51
tp1666
F2.5
s(I1
I0
I0
I254
tp1667
F3.2
s(I1
I2
I518400
I91693
tp1668
F2.5
s(I1
I7
I1036800
I1326550
tp1669
F2.5
s(I3
I0
I0
I245
tp1670
F3.2
s(I2
I0
I0
I297
tp1671
F3.2
s(I12
I0
I0
I264
tp1672
F3.2
s(I1
I4
I1555200
I1525302
tp1673
F2.5
s(I6
I0
I0
I186
tp1674
F3.2
s(I1
I2
I432000
I91626
tp1675
F2.5
s(I1
I0
I0
I99764
tp1676
F2.5
s(I1
I4
I604800
I622804
tp1677
F2.5
s(I26
I0
I0
I144
tp1678
F2.5
s(I19
I0
I0
I216
tp1679
F2.5
s(I2
I0
I0
I62
tp1680
F3.2
s(I1
I1
I172800
I140
tp1681
F2.5
s(I1
I1
I345600
I347358
tp1682
F2.5
s(I10
I0
I0
I79110
tp1683
F2.5
s(I1
I0
I0
I12644
tp1684
F2.5
s(I1
I6
I86400
I35879
tp1685
F2.5
s(I1
I0
I0
I102483
tp1686
F2.5
s(I13
I0
I0
I104
tp1687
F3.2
s(I12
I0
I0
I1306
tp1688
F2.5
s(I2
I1
I86400
I75320
tp1689
F2.5
s(I1
I8
I432000
I3045
tp1690
F2.5
s(I1
I1
I172800
I156833
tp1691
F2.5
s(I1
I2
I432000
I393236
tp1692
F2.5
s(I1
I0
I0
I71
tp1693
F3.2
s(I8
I0
I0
I454
tp1694
F3.2
s(I7
I0
I0
I273
tp1695
F3.2
s(I1
I0
I0
I862
tp1696
F3.2
s(I0
I0
I172800
I283924
tp1697
F2.5
s(I2
I1
I172800
I172005
tp1698
F2.5
s(I2
I0
I0
I201
tp1699
F3.2
s(I1
I1
I86400
I38428
tp1700
F2.5
s(I10
I0
I0
I82733
tp1701
F2.5
s(I0
I0
I1296000
I1759688
tp1702
F2.5
s(I3
I0
I0
I1199
tp1703
F3.2
s(I1
I2
I432000
I467954
tp1704
F2.5
s(I3
I0
I0
I332
tp1705
F3.2
s(I0
I0
I172800
I160230
tp1706
F2.5
s(I1
I2
I518400
I15855
tp1707
F2.5
s(I22
I0
I0
I216
tp1708
F2.5
s(I2
I0
I0
I217632
tp1709
F2.5
s(I1
I0
I0
I39
tp1710
F3.2
s(I1
I8
I518400
I241607
tp1711
F2.5
s(I1
I3
I172800
I2591
tp1712
F2.5
s(I1
I1
I86400
I3516
tp1713
F2.5
s(I3
I0
I0
I194
tp1714
F3.2
s(I1
I1
I86400
I4212
tp1715
F2.5
s(I1
I1
I172800
I172510
tp1716
F2.5
s(I22
I0
I0
I105655
tp1717
F2.5
s(I1
I6
I86400
I96058
tp1718
F2.5
s(I14
I0
I0
I107
tp1719
F3.2
s(I5
I0
I0
I59
tp1720
F3.2
s(I6
I0
I0
I237
tp1721
F3.2
s(I1
I1
I86400
I0
tp1722
F2.5
s(I2
I1
I86400
I38605
tp1723
F2.5
s(I1
I4
I864000
I953880
tp1724
F2.5
s(I14
I0
I0
I13210
tp1725
F2.5
s(I10
I0
I0
I495
tp1726
F3.2
s(I2
I0
I0
I105
tp1727
F3.2
s(I9
I0
I0
I1136
tp1728
F2.5
s(I24
I0
I0
I2529
tp1729
F2.5
s(I4
I0
I0
I338
tp1730
F3.2
s(I0
I0
I432000
I444072
tp1731
F2.5
s(I3
I2
I432000
I884795
tp1732
F2.5
s(I2
I0
I0
I1301
tp1733
F3.2
s(I1
I4
I864000
I846835
tp1734
F2.5
s(I1
I1
I172800
I145213
tp1735
F2.5
s(I1
I2
I518400
I495108
tp1736
F2.5
s(I0
I0
I172800
I159527
tp1737
F2.5
s(I2
I0
I0
I9888
tp1738
F2.5
s(I1
I1
I172800
I556162
tp1739
F2.5
s(I1
I1
I432000
I351308
tp1740
F2.5
s(I1
I4
I1641600
I1720419
tp1741
F2.5
s(I16
I0
I0
I77463
tp1742
F2.5
s(I1
I4
I1555200
I1451991
tp1743
F2.5
s(I3
I0
I0
I102446
tp1744
F2.5
s(I1
I1
I345600
I365384
tp1745
F2.5
s(I1
I0
I0
I135
tp1746
F3.2
s(I0
I0
I86400
I2373
tp1747
F2.5
s(I1
I3
I691200
I684412
tp1748
F2.5
s(I17
I0
I0
I2612
tp1749
F2.5
s(I3
I2
I518400
I495280
tp1750
F2.5
s(I3
I0
I0
I34
tp1751
F3.2
s(I1
I6
I172800
I5501
tp1752
F2.5
s(I5
I0
I0
I43
tp1753
F3.2
s(I2
I0
I0
I15
tp1754
F3.2
s(I1
I3
I1641600
I1893698
tp1755
F2.5
s(I3
I0
I0
I277
tp1756
F3.2
s(I2
I0
I0
I9
tp1757
F2.49
s(I0
I0
I86400
I156705
tp1758
F2.5
s(I9
I1
I172800
I132023
tp1759
F2.5
s(I9
I0
I0
I36462
tp1760
F2.5
s(I3
I1
I86400
I77241
tp1761
F2.5
s(I1
I1
I86400
I90179
tp1762
F2.5
s(I0
I0
I86400
I165483
tp1763
F2.5
s(I1
I1
I86400
I75520
tp1764
F2.5
s(I19
I0
I0
I102795
tp1765
F2.5
s(I1
I3
I691200
I658287
tp1766
F2.5
s(I1
I3
I1209600
I1648654
tp1767
F2.5
s(I0
I0
I86400
I125593
tp1768
F2.5
s(I1
I1
I86400
I274535
tp1769
F2.5
s(I2
I0
I0
I128
tp1770
F3.2
s(I1
I7
I518400
I3538
tp1771
F2.5
s(I1
I2
I518400
I489305
tp1772
F2.5
s(I3
I0
I0
I170347
tp1773
F2.5
s(I1
I1
I172800
I235712
tp1774
F2.5
s(I2
I1
I86400
I25636
tp1775
F2.5
s(I2
I0
I0
I99660
tp1776
F2.5
s(I1
I2
I432000
I456956
tp1777
F2.5
s(I1
I1
I518400
I873655
tp1778
F2.5
s(I3
I0
I0
I373
tp1779
F3.2
s(I1
I0
I0
I409
tp1780
F3.2
s(I1
I1
I86400
I25941
tp1781
F2.5
s(I21
I0
I0
I376
tp1782
F2.5
s(I1
I2
I432000
I439103
tp1783
F2.5
s(I19
I0
I0
I284
tp1784
F2.5
s(I11
I0
I0
I282
tp1785
F3.2
s(I4
I0
I0
I18
tp1786
F3.2
s(I9
I0
I0
I923
tp1787
F3.0
s(I6
I0
I0
I95
tp1788
F3.2
s(I0
I0
I172800
I105916
tp1789
F2.5
s(I4
I0
I0
I1023
tp1790
F3.2
s(I18
I1
I86400
I25702
tp1791
F2.5
s(I1
I0
I0
I240
tp1792
F3.2
s(I1
I1
I432000
I883903
tp1793
F2.5
s(I1
I1
I86400
I89138
tp1794
F2.5
s(I1
I4
I172800
I156406
tp1795
F2.5
s(I1
I7
I259200
I212592
tp1796
F2.5
s(I1
I2
I518400
I490004
tp1797
F2.5
s(I7
I0
I0
I221
tp1798
F3.2
s(I1
I4
I2073600
I2342912
tp1799
F2.5
s(I3
I0
I0
I14007
tp1800
F2.5
s(I2
I1
I172800
I270002
tp1801
F2.5
s(I2
I1
I86400
I78235
tp1802
F2.5
s(I2
I0
I0
I32
tp1803
F3.2
s(I1
I0
I0
I13307
tp1804
F2.5
s(I1
I5
I86400
I35958
tp1805
F2.5
s(I20
I0
I0
I165
tp1806
F2.5
s(I1
I6
I86400
I35925
tp1807
F2.5
s(I20
I0
I0
I78
tp1808
F1.3
s(I1
I2
I432000
I2125
tp1809
F2.5
s(I17
I0
I0
I704
tp1810
F2.5
s(I2
I0
I0
I402
tp1811
F3.2
s(I1
I2
I518400
I495033
tp1812
F2.5
s(I3
I1
I172800
I176801
tp1813
F2.5
s(I15
I0
I0
I265
tp1814
F3.2
s(I2
I0
I0
I79048
tp1815
F2.5
s(I1
I2
I604800
I604585
tp1816
F2.5
s(I1
I18
I1123200
I1131486
tp1817
F2.5
s(I0
I0
I172800
I6226575
tp1818
F2.5
s(I3
I0
I0
I107
tp1819
F3.2
s(I26
I0
I0
I105292
tp1820
F2.5
s(I0
I0
I604800
I584731
tp1821
F2.5
s(I2
I0
I0
I13694
tp1822
F2.5
s(I5
I0
I0
I6
tp1823
F3.2
s(I3
I0
I0
I518
tp1824
F3.2
s(I1
I3
I432000
I429384
tp1825
F2.5
s(I2
I1
I86400
I25629
tp1826
F2.5
s(I1
I1
I86400
I36412
tp1827
F2.5
s(I1
I5
I259200
I1285
tp1828
F2.5
s(I1
I3
I172800
I131902
tp1829
F2.5
s(I8
I1
I86400
I56999
tp1830
F2.5
s(I3
I0
I0
I239147
tp1831
F2.5
s(I4
I0
I0
I41
tp1832
F3.2
s(I1
I12
I172800
I89777
tp1833
F2.5
s(I1
I1
I86400
I37853
tp1834
F2.5
s(I8
I0
I0
I36661
tp1835
F2.5
s(I4
I0
I0
I88446
tp1836
F2.5
s(I1
I13
I259200
I3727
tp1837
F2.5
s(I1
I2
I432000
I63840
tp1838
F2.5
s(I3
I0
I0
I208
tp1839
F3.2
s(I2
I0
I0
I306
tp1840
F3.2
s(I6
I0
I0
I159
tp1841
F3.2
s(I1
I2
I432000
I392871
tp1842
F2.5
s(I2
I1
I172800
I91940
tp1843
F2.5
s(I1
I1
I172800
I204589
tp1844
F2.5
s(I8
I1
I86400
I111014
tp1845
F2.5
s(I1
I5
I777600
I39
tp1846
F2.5
s(I2
I0
I0
I91
tp1847
F3.2
s(I2
I0
I0
I46
tp1848
F3.2
s(I2
I0
I0
I158578
tp1849
F2.5
s(I27
I0
I0
I66629
tp1850
F2.5
s(I1
I2
I518400
I91624
tp1851
F2.5
s(I1
I7
I432000
I3746
tp1852
F2.5
s(I1
I2
I518400
I495114
tp1853
F2.5
s(I2
I1
I86400
I36243
tp1854
F2.5
s(I0
I0
I172800
I132093
tp1855
F2.5
s(I1
I2
I518400
I542706
tp1856
F2.5
s(I1
I3
I777600
I772434
tp1857
F2.5
s(I4
I1
I86400
I157623
tp1858
F2.5
s(I1
I8
I432000
I2839
tp1859
F2.5
s(I1
I0
I0
I185
tp1860
F3.2
s(I28
I0
I0
I272
tp1861
F2.5
s(I2
I0
I0
I210
tp1862
F3.2
s(I1
I3
I864000
I852636
tp1863
F2.5
s(I1
I2
I604800
I609216
tp1864
F2.5
s(I4
I0
I0
I1214
tp1865
F3.2
s(I1
I7
I864000
I1326515
tp1866
F2.5
s(I7
I0
I0
I130
tp1867
F3.2
s(I15
I1
I172800
I285203
tp1868
F2.5
s(I6
I0
I0
I14701
tp1869
F2.5
s(I1
I0
I0
I299
tp1870
F3.2
s(I1
I3
I172800
I53631
tp1871
F2.5
s(I0
I0
I86400
I87702
tp1872
F2.5
s(I1
I3
I1209600
I1181979
tp1873
F2.5
s(I1
I2
I604800
I646468
tp1874
F2.5
s(I2
I1
I86400
I87525
tp1875
F2.5
s(I1
I7
I345600
I3322
tp1876
F2.5
s(I1
I8
I86400
I10366
tp1877
F2.5
s(I1
I0
I0
I2
tp1878
F1.39
s(I8
I2
I518400
I479670
tp1879
F2.5
s(I1
I2
I604800
I609395
tp1880
F2.5
s(I2
I0
I0
I959
tp1881
F3.2
s(I2
I0
I0
I13443
tp1882
F2.5
s(I1
I5
I172800
I172528
tp1883
F2.5
s(I1
I2
I604800
I595733
tp1884
F2.5
s(I1
I3
I864000
I1217055
tp1885
F2.5
s(I5
I0
I0
I114164
tp1886
F2.5
s(I2
I0
I0
I114
tp1887
F3.2
s(I2
I2
I432000
I801134
tp1888
F2.5
s(I0
I0
I1123200
I1103278
tp1889
F2.5
s(I1
I4
I777600
I759513
tp1890
F2.5
s(I1
I2
I518400
I91604
tp1891
F2.5
s(I2
I0
I0
I17104
tp1892
F2.5
s(I1
I4
I345600
I41
tp1893
F2.5
s(I1
I0
I0
I624
tp1894
F3.2
s(I1
I1
I172800
I145190
tp1895
F2.5
s(I14
I0
I0
I13140
tp1896
F2.5
s(I2
I1
I86400
I78092
tp1897
F2.5
s(I1
I5
I259200
I142379
tp1898
F2.5
s(I1
I3
I172800
I131941
tp1899
F2.5
s(I1
I0
I0
I395
tp1900
F3.2
s(I1
I1
I172800
I172256
tp1901
F2.5
s(I1
I2
I604800
I326102
tp1902
F2.5
s(I0
I0
I86400
I72457
tp1903
F2.5
s(I4
I0
I0
I96
tp1904
F3.2
s(I4
I2
I518400
I524876
tp1905
F2.5
s(I2
I0
I0
I72585
tp1906
F2.5
s(I2
I1
I172800
I167944
tp1907
F2.5
s(I18
I0
I0
I316
tp1908
F2.5
s(I16
I0
I0
I13177
tp1909
F2.5
s(I1
I3
I172800
I91439
tp1910
F2.5
s(I1
I2
I604800
I648748
tp1911
F2.5
s(I1
I3
I432000
I480893
tp1912
F2.5
s(I1
I6
I259200
I209204
tp1913
F2.5
s(I2
I0
I0
I269
tp1914
F3.2
s(I1
I2
I518400
I515052
tp1915
F2.5
s(I0
I0
I86400
I102111
tp1916
F2.5
s(I2
I2
I518400
I476674
tp1917
F2.5
s(I7
I1
I86400
I66175
tp1918
F2.5
s(I1
I7
I345600
I3507
tp1919
F2.5
s(I6
I0
I0
I342
tp1920
F3.2
s(I5
I0
I0
I208
tp1921
F3.2
s(I1
I6
I777600
I760094
tp1922
F2.5
s(I1
I1
I172800
I15511
tp1923
F2.5
s(I3
I0
I0
I13358
tp1924
F2.5
s(I1
I6
I432000
I199618
tp1925
F2.5
s(I14
I0
I0
I13279
tp1926
F2.5
s(I1
I10
I1468800
I1650375
tp1927
F2.5
s(I0
I0
I604800
I624734
tp1928
F2.5
s(I2
I0
I0
I18
tp1929
F3.2
s(I1
I8
I1209600
I1382032
tp1930
F2.5
s(I1
I5
I259200
I44224
tp1931
F2.5
s(I11
I0
I0
I86079
tp1932
F2.5
s(I2
I4
I259200
I4381
tp1933
F2.5
s(I1
I0
I0
I720
tp1934
F3.2
s(I1
I2
I432000
I393320
tp1935
F2.5
s(I1
I11
I1555200
I1570580
tp1936
F2.5
s(I3
I2
I604800
I609582
tp1937
F2.5
s(I1
I1
I518400
I1291893
tp1938
F2.5
s(I11
I0
I0
I232
tp1939
F3.2
s(I3
I0
I0
I134
tp1940
F3.2
s(I2
I0
I0
I388
tp1941
F3.2
s(I3
I0
I0
I54219
tp1942
F2.5
s(I1
I2
I604800
I609288
tp1943
F2.5
s(I25
I0
I0
I132
tp1944
F2.5
s(I1
I0
I0
I834
tp1945
F3.2
s(I1
I3
I172800
I25999
tp1946
F2.5
s(I1
I2
I604800
I93574
tp1947
F2.5
s(I0
I0
I2419200
I2422338
tp1948
F2.5
s(I10
I0
I0
I435
tp1949
F3.2
s(I0
I0
I604800
I584745
tp1950
F2.5
s(I2
I2
I518400
I528526
tp1951
F2.5
s(I1
I2
I518400
I941547
tp1952
F2.5
s(I1
I15
I1382400
I1382039
tp1953
F2.5
s(I8
I0
I0
I143
tp1954
F3.2
s(I1
I7
I345600
I2984
tp1955
F2.5
s(I3
I0
I0
I336
tp1956
F3.2
s(I5
I0
I0
I89179
tp1957
F2.5
s(I1
I3
I1296000
I1286391
tp1958
F2.5
s(I4
I0
I0
I63
tp1959
F3.2
s(I0
I0
I172800
I92568
tp1960
F2.5
s(I28
I0
I0
I170356
tp1961
F2.5
s(I1
I0
I0
I688
tp1962
F3.2
s(I1
I2
I432000
I446807
tp1963
F2.5
s(I2
I0
I0
I13621
tp1964
F2.5
s(I3
I1
I86400
I92122
tp1965
F2.5
s(I1
I3
I1036800
I995312
tp1966
F2.5
s(I1
I9
I345600
I3690
tp1967
F2.5
s(I1
I13
I172800
I89765
tp1968
F2.5
s(I4
I1
I86400
I165885
tp1969
F2.5
s(I1
I1
I86400
I25800
tp1970
F2.5
s(I6
I0
I0
I137
tp1971
F3.2
s(I1
I1
I518400
I0
tp1972
F2.5
s(I1
I3
I345600
I214
tp1973
F2.5
s(I24
I0
I0
I218
tp1974
F2.5
s(I7
I0
I0
I240
tp1975
F3.2
s(I1
I1
I86400
I157580
tp1976
F2.5
s(I1
I1
I172800
I240040
tp1977
F2.5
s(I19
I0
I0
I165
tp1978
F2.5
s(I2
I0
I0
I77
tp1979
F3.2
s(I1
I5
I259200
I3720
tp1980
F2.5
s(I11
I0
I0
I510
tp1981
F3.2
s(I8
I0
I0
I239
tp1982
F3.2
s(I1
I4
I691200
I214
tp1983
F2.5
s(I1
I10
I345600
I372736
tp1984
F2.5
s(I1
I4
I777600
I759289
tp1985
F2.5
s(I4
I0
I0
I95
tp1986
F3.2
s(I2
I0
I0
I13960
tp1987
F2.5
s(I9
I0
I0
I806
tp1988
F3.2
s(I7
I0
I0
I258
tp1989
F3.2
s(I6
I0
I0
I0
tp1990
F3.2
s(I1
I12
I259200
I82509
tp1991
F2.5
s(I1
I1
I172800
I375030
tp1992
F2.5
s(I14
I0
I0
I177161
tp1993
F2.5
s(I0
I0
I1382400
I1442298
tp1994
F2.5
s(I0
I0
I432000
I386519
tp1995
F2.5
s(I23
I1
I172800
I157996
tp1996
F2.5
s(I5
I1
I86400
I25801
tp1997
F2.5
s(I1
I0
I0
I1121
tp1998
F3.2
s(I1
I0
I0
I898
tp1999
F3.2
s(I14
I0
I0
I392
tp2000
F3.2
s(I1
I6
I172800
I156281
tp2001
F2.5
s(I1
I3
I1123200
I1242406
tp2002
F2.5
s(I18
I0
I0
I249
tp2003
F2.5
s(I1
I2
I432000
I398887
tp2004
F2.5
s(I1
I2
I432000
I450633
tp2005
F2.5
s(I12
I0
I0
I72
tp2006
F3.2
s(I3
I0
I0
I980
tp2007
F3.2
s(I0
I0
I172800
I105976
tp2008
F2.5
s(I1
I9
I1382400
I1380288
tp2009
F2.5
s(I1
I2
I518400
I528403
tp2010
F2.5
s(I1
I1
I86400
I37830
tp2011
F2.5
s(I1
I0
I0
I52
tp2012
F3.2
s(I1
I12
I604800
I630380
tp2013
F2.5
s(I23
I0
I0
I105587
tp2014
F2.5
s(I1
I5
I1123200
I1106235
tp2015
F2.5
s(I2
I0
I0
I351
tp2016
F3.2
s(I1
I4
I777600
I658499
tp2017
F2.5
s(I2
I2
I432000
I510862
tp2018
F2.5
s(I1
I3
I345600
I622781
tp2019
F2.5
s(I1
I7
I86400
I96071
tp2020
F2.5
s(I2
I15
I259200
I247565
tp2021
F2.5
s(I1
I2
I432000
I91675
tp2022
F2.5
s(I6
I0
I0
I932
tp2023
F3.2
s(I11
I0
I0
I79121
tp2024
F2.5
s(I3
I0
I0
I422
tp2025
F3.2
s(I2
I0
I0
I100
tp2026
F3.2
s(I2
I2
I518400
I4309
tp2027
F2.5
s(I5
I0
I0
I72555
tp2028
F2.5
s(I9
I1
I172800
I285327
tp2029
F2.5
s(I3
I0
I0
I13751
tp2030
F2.5
s(I1
I1
I86400
I59297
tp2031
F2.5
s(I1
I0
I0
I445
tp2032
F3.2
s(I0
I0
I172800
I285825
tp2033
F2.5
s(I0
I0
I86400
I165983
tp2034
F2.5
s(I1
I2
I604800
I795456
tp2035
F2.5
s(I0
I0
I172800
I132050
tp2036
F2.5
s(I1
I7
I1555200
I1720371
tp2037
F2.5
s(I3
I0
I0
I820
tp2038
F3.2
s(I4
I2
I518400
I495833
tp2039
F2.5
s(I1
I1
I86400
I38269
tp2040
F2.5
s(I2
I1
I172800
I157927
tp2041
F2.5
s(I1
I13
I518400
I533929
tp2042
F2.5
s(I1
I0
I0
I148
tp2043
F3.2
s(I0
I0
I86400
I85323
tp2044
F2.5
s(I2
I1
I172800
I156715
tp2045
F2.5
s(I12
I0
I0
I257
tp2046
F3.2
s(I3
I0
I0
I47
tp2047
F3.2
s(I2
I0
I0
I255
tp2048
F3.2
s(I29
I0
I0
I156
tp2049
F2.5
s(I17
I0
I0
I102750
tp2050
F2.5
s(I1
I3
I950400
I931063
tp2051
F2.5
s(I1
I2
I518400
I490088
tp2052
F2.5
s(I1
I1
I432000
I884032
tp2053
F2.5
s(I19
I0
I0
I242
tp2054
F2.5
s(I18
I0
I0
I208
tp2055
F2.5
s(I2
I0
I0
I4
tp2056
F2.18
s(I2
I2
I518400
I515196
tp2057
F2.5
s(I2
I7
I345600
I335417
tp2058
F2.5
s(I1
I0
I0
I161692
tp2059
F2.5
s(I2
I10
I691200
I722243
tp2060
F2.5
s(I0
I0
I86400
I66180
tp2061
F2.5
s(I2
I0
I0
I644
tp2062
F3.2
s(I2
I1
I86400
I102195
tp2063
F2.5
s(I1
I14
I1209600
I1175913
tp2064
F2.5
s(I1
I0
I0
I29
tp2065
F3.2
s(I12
I0
I0
I136
tp2066
F3.2
s(I4
I0
I0
I150
tp2067
F3.2
s(I3
I0
I0
I148
tp2068
F3.2
s(I2
I0
I0
I374
tp2069
F3.2
s(I6
I0
I0
I219
tp2070
F3.2
s(I5
I0
I0
I331
tp2071
F3.2
s(I10
I0
I0
I86110
tp2072
F2.5
s(I1
I3
I1555200
I1720427
tp2073
F2.5
s(I1
I1
I86400
I72456
tp2074
F2.5
s(I3
I0
I0
I399
tp2075
F3.2
s(I7
I1
I172800
I146341
tp2076
F2.5
s(I1
I8
I172800
I3542
tp2077
F2.5
s(I2
I0
I0
I77771
tp2078
F2.5
s(I3
I0
I0
I599919
tp2079
F2.5
s(I9
I0
I0
I72423
tp2080
F2.5
s(I1
I0
I0
I1066
tp2081
F3.2
s(I2
I2
I432000
I420057
tp2082
F2.5
s(I1
I4
I1814400
I1795552
tp2083
F2.5
s(I13
I0
I0
I1356
tp2084
F2.5
s(I3
I1
I172800
I324461
tp2085
F2.5
s(I1
I1
I86400
I112965
tp2086
F2.5
s(I1
I5
I518400
I1290
tp2087
F2.5
s(I0
I0
I1382400
I1408344
tp2088
F2.5
s(I16
I0
I0
I309
tp2089
F2.5
s(I2
I0
I0
I278
tp2090
F3.2
s(I5
I0
I0
I235
tp2091
F3.2
s(I0
I0
I86400
I274540
tp2092
F2.5
s(I1
I4
I1296000
I1328394
tp2093
F2.5
s(I5
I1
I86400
I80016
tp2094
F2.5
s(I18
I0
I0
I171
tp2095
F2.5
s(I2
I0
I0
I63
tp2096
F3.2
s(I1
I0
I0
I367
tp2097
F3.2
s(I2
I2
I518400
I508377
tp2098
F2.5
s(I0
I0
I172800
I157694
tp2099
F2.5
s(I1
I3
I1209600
I1556579
tp2100
F2.5
s(I2
I1
I172800
I160432
tp2101
F2.5
s(I1
I3
I259200
I2715
tp2102
F2.5
s(I0
I0
I86400
I0
tp2103
F2.5
s(I1
I1
I86400
I115385
tp2104
F2.5
s(I1
I4
I172800
I17
tp2105
F2.5
s(I1
I2
I432000
I393239
tp2106
F2.5
s(I1
I0
I0
I70
tp2107
F3.2
s(I26
I0
I0
I547
tp2108
F2.5
s(I12
I0
I0
I215
tp2109
F3.2
s(I4
I0
I0
I173
tp2110
F3.2
s(I1
I2
I518400
I97906
tp2111
F2.5
s(I1
I0
I0
I861
tp2112
F3.2
s(I1
I7
I345600
I3688
tp2113
F2.5
s(I20
I0
I0
I463
tp2114
F2.5
s(I4
I0
I0
I307
tp2115
F3.2
s(I18
I0
I0
I622
tp2116
F2.5
s(I1
I3
I1123200
I1105863
tp2117
F2.5
s(I2
I0
I0
I991
tp2118
F3.2
s(I4
I0
I0
I11792
tp2119
F2.5
s(I1
I4
I259200
I198853
tp2120
F2.5
s(I12
I0
I0
I94
tp2121
F3.2
s(I6
I0
I0
I171907
tp2122
F2.5
s(I1
I4
I2678400
I2824538
tp2123
F2.5
s(I1
I4
I777600
I910431
tp2124
F2.5
s(I1
I8
I345600
I3501
tp2125
F2.5
s(I11
I0
I0
I520
tp2126
F3.2
s(I43
I0
I0
I191
tp2127
F2.5
s(I0
I0
I604800
I1067694
tp2128
F2.5
s(I3
I0
I0
I221
tp2129
F3.2
s(I14
I0
I0
I72358
tp2130
F2.5
s(I1
I8
I86400
I1807
tp2131
F2.5
s(I1
I13
I777600
I931034
tp2132
F2.5
s(I1
I0
I0
I829
tp2133
F3.2
s(I1
I1
I172800
I4491
tp2134
F2.5
s(I1
I6
I172800
I156412
tp2135
F2.5
s(I1
I4
I1900800
I2086217
tp2136
F2.5
s(I3
I1
I172800
I286836
tp2137
F2.5
s(I2
I1
I172800
I141505
tp2138
F2.5
s(I2
I0
I0
I86
tp2139
F3.2
s(I1
I0
I0
I344
tp2140
F3.2
s(I1
I4
I1382400
I1656041
tp2141
F2.5
s(I0
I0
I86400
I125415
tp2142
F2.5
s(I2
I1
I86400
I15493
tp2143
F2.5
s(I23
I1
I172800
I157473
tp2144
F2.5
s(I5
I0
I0
I526
tp2145
F3.2
s(I1
I3
I259200
I2914
tp2146
F2.5
s(I9
I0
I0
I133
tp2147
F3.2
s(I1
I2
I432000
I437019
tp2148
F2.5
s(I1
I0
I0
I40912
tp2149
F2.5
s(I0
I0
I86400
I126129
tp2150
F2.5
s(I14
I0
I0
I72550
tp2151
F2.5
s(I0
I0
I86400
I96377
tp2152
F2.5
s(I2
I1
I86400
I113772
tp2153
F2.5
s(I1
I5
I86400
I35916
tp2154
F2.5
s(I1
I2
I604800
I105120
tp2155
F2.5
s(I1
I2
I432000
I444126
tp2156
F2.5
s(I0
I0
I86400
I79674
tp2157
F2.5
s(I10
I0
I0
I86064
tp2158
F2.5
s(I1
I3
I172800
I91467
tp2159
F2.5
s(I1
I8
I86400
I94810
tp2160
F2.5
s(I12
I0
I0
I36750
tp2161
F2.5
s(I3
I0
I0
I61
tp2162
F3.2
s(I1
I8
I864000
I960658
tp2163
F2.5
s(I1
I0
I0
I41134
tp2164
F2.5
s(I9
I0
I0
I58981
tp2165
F2.5
s(I5
I0
I0
I663
tp2166
F3.2
s(I1
I2
I604800
I93549
tp2167
F2.5
s(I2
I0
I0
I86005
tp2168
F2.5
s(I0
I0
I172800
I883799
tp2169
F2.5
s(I1
I2
I518400
I479473
tp2170
F2.5
s(I0
I0
I86400
I128271
tp2171
F2.5
s(I5
I0
I0
I430
tp2172
F3.2
s(I2
I1
I172800
I171943
tp2173
F2.5
s(I10
I1
I172800
I157623
tp2174
F2.5
s(I2
I2
I432000
I420125
tp2175
F2.5
s(I4
I0
I0
I228
tp2176
F3.2
s(I3
I0
I0
I170
tp2177
F3.2
s(I6
I0
I0
I197
tp2178
F3.2
s(I0
I0
I86400
I78019
tp2179
F2.5
s(I1
I12
I259200
I213504
tp2180
F2.5
s(I1
I1
I86400
I1787
tp2181
F2.5
s(I2
I2
I518400
I479675
tp2182
F2.5
s(I2
I1
I172800
I176921
tp2183
F2.5
s(I1
I4
I432000
I209959
tp2184
F2.5
s(I2
I0
I0
I129
tp2185
F3.2
s(I4
I0
I0
I362
tp2186
F3.2
s(I1
I10
I604800
I604990
tp2187
F2.5
s(I2
I1
I86400
I25643
tp2188
F2.5
s(I1
I1
I172800
I157359
tp2189
F2.5
s(I1
I0
I0
I408
tp2190
F3.2
s(I0
I0
I604800
I603522
tp2191
F2.5
s(I1
I2
I432000
I423741
tp2192
F2.5
s(I2
I2
I432000
I71875
tp2193
F2.5
s(I19
I0
I0
I287
tp2194
F2.5
s(I4
I0
I0
I19
tp2195
F3.2
s(I2
I0
I0
I499
tp2196
F3.2
s(I2
I2
I432000
I435869
tp2197
F2.5
s(I1
I1
I345600
I343085
tp2198
F2.5
s(I7
I0
I0
I334
tp2199
F3.2
s(I0
I0
I86400
I90182
tp2200
F2.5
s(I1
I4
I950400
I975358
tp2201
F2.5
s(I1
I0
I0
I239
tp2202
F3.2
s(I1
I2
I518400
I91698
tp2203
F2.5
s(I2
I1
I86400
I80009
tp2204
F2.5
s(I3
I0
I0
I10
tp2205
F2.97
s(I2
I0
I0
I280
tp2206
F3.2
s(I1
I4
I172800
I156405
tp2207
F2.5
s(I1
I3
I1209600
I1213829
tp2208
F2.5
s(I6
I0
I0
I165
tp2209
F3.2
s(I1
I10
I259200
I213365
tp2210
F2.5
s(I18
I0
I0
I528
tp2211
F2.5
s(I1
I4
I777600
I919123
tp2212
F2.5
s(I3
I0
I0
I105358
tp2213
F2.5
s(I0
I0
I1814400
I1807653
tp2214
F2.5
s(I2
I0
I0
I33
tp2215
F3.2
s(I5
I1
I172800
I145211
tp2216
F2.5
s(I4
I2
I518400
I479579
tp2217
F2.5
s(I1
I5
I1900800
I1871567
tp2218
F2.5
s(I4
I0
I0
I394
tp2219
F3.2
s(I1
I6
I1296000
I1721172
tp2220
F2.5
s(I1
I2
I432000
I464167
tp2221
F2.5
s(I1
I2
I604800
I616561
tp2222
F2.5
s(I0
I0
I432000
I430195
tp2223
F3.2
s(I0
I0
I86400
I80233
tp2224
F2.5
s(I1
I4
I1209600
I1382235
tp2225
F2.5
s(I2
I1
I86400
I38327
tp2226
F2.5
s(I13
I0
I0
I13146
tp2227
F2.5
s(I1
I1
I172800
I172215
tp2228
F2.5
s(I14
I0
I0
I966
tp2229
F2.5
s(I4
I2
I604800
I609524
tp2230
F2.5
s(I1
I7
I1209600
I1648652
tp2231
F2.5
s(I1
I1
I86400
I92317
tp2232
F2.5
s(I1
I13
I2073600
I1885744
tp2233
F2.5
s(I0
I0
I518400
I686331
tp2234
F2.5
s(I1
I4
I259200
I92110
tp2235
F2.5
s(I2
I1
I172800
I89793
tp2236
F2.5
s(I6
I0
I0
I60
tp2237
F3.2
s(I0
I0
I86400
I35085
tp2238
F2.5
s(I1
I1
I259200
I248255
tp2239
F2.5
s(I0
I0
I86400
I61699
tp2240
F2.5
s(I2
I0
I0
I184
tp2241
F3.2
s(I4
I1
I172800
I171882
tp2242
F2.5
s(I2
I1
I86400
I72534
tp2243
F2.5
s(I0
I0
I86400
I35430
tp2244
F2.5
s(I1
I2
I604800
I603537
tp2245
F2.5
s(I0
I0
I86400
I139478
tp2246
F2.5
s(I0
I0
I172800
I92012
tp2247
F2.5
s(I21
I0
I0
I320
tp2248
F2.5
s(I4
I0
I0
I42
tp2249
F3.2
s(I10
I2
I604800
I941870
tp2250
F2.5
s(I2
I2
I432000
I362718
tp2251
F2.5
s(I1
I1
I86400
I3882
tp2252
F2.5
s(I1
I8
I86400
I77902
tp2253
F2.5
s(I1
I0
I0
I216
tp2254
F3.2
s(I6
I0
I0
I476
tp2255
F3.2
s(I3
I0
I0
I240036
tp2256
F2.5
s(I1
I6
I864000
I1289
tp2257
F2.5
s(I4
I0
I0
I211
tp2258
F3.2
s(I3
I0
I0
I211
tp2259
F3.2
s(I2
I0
I0
I307
tp2260
F3.2
s(I6
I0
I0
I156
tp2261
F3.2
s(I5
I0
I0
I142
tp2262
F3.2
s(I1
I0
I0
I13698
tp2263
F2.5
s(I26
I0
I0
I138
tp2264
F2.5
s(I2
I0
I0
I88
tp2265
F3.2
s(I1
I3
I259200
I51769
tp2266
F2.5
s(I9
I0
I0
I36743
tp2267
F2.5
s(I1
I2
I518400
I496072
tp2268
F2.5
s(I1
I8
I1555200
I1525306
tp2269
F2.5
s(I1
I7
I1641600
I1408638
tp2270
F2.5
s(I1
I0
I0
I99557
tp2271
F2.5
s(I1
I11
I1728000
I1573839
tp2272
F2.5
s(I2
I0
I0
I1284
tp2273
F3.2
s(I1
I0
I0
I518
tp2274
F3.2
s(I1
I1
I86400
I84299
tp2275
F2.5
s(I3
I0
I0
I72526
tp2276
F2.5
s(I1
I1
I86400
I210855
tp2277
F2.5
s(I2
I0
I0
I77860
tp2278
F2.5
s(I1
I1
I86400
I477637
tp2279
F2.5
s(I8
I0
I0
I459
tp2280
F3.2
s(I2
I2
I518400
I476619
tp2281
F2.5
s(I3
I0
I0
I82833
tp2282
F2.5
s(I2
I0
I0
I86044
tp2283
F2.5
s(I0
I0
I172800
I790575
tp2284
F2.5
s(I1
I1
I172800
I91413
tp2285
F2.5
s(I3
I0
I0
I51
tp2286
F3.2
s(I1
I9
I86400
I94806
tp2287
F2.5
s(I1
I1
I86400
I91295
tp2288
F2.5
s(I1
I8
I259200
I3289
tp2289
F2.5
s(I0
I0
I604800
I624648
tp2290
F2.5
s(I3
I0
I0
I298
tp2291
F3.2
s(I1
I0
I0
I177027
tp2292
F2.5
s(I2
I1
I259200
I302288
tp2293
F2.5
s(I1
I11
I1036800
I1022402
tp2294
F2.5
s(I0
I0
I86400
I92293
tp2295
F2.5
s(I5
I0
I0
I66675
tp2296
F2.5
s(I1
I3
I604800
I341877
tp2297
F2.5
s(I2
I0
I0
I40082
tp2298
F2.5
s(I0
I0
I86400
I69922
tp2299
F2.5
s(I1
I2
I518400
I315
tp2300
F2.5
s(I2
I0
I0
I115
tp2301
F3.2
s(I2
I2
I604800
I600861
tp2302
F2.5
s(I13
I0
I0
I36
tp2303
F1.3
s(I12
I0
I0
I994
tp2304
F2.5
s(I5
I0
I0
I78
tp2305
F3.2
s(I2
I1
I86400
I78696
tp2306
F2.5
s(I1
I2
I604800
I489324
tp2307
F2.5
s(I1
I2
I432000
I396906
tp2308
F2.5
s(I0
I0
I604800
I601498
tp2309
F2.5
s(I4
I0
I0
I77853
tp2310
F2.5
s(I9
I0
I0
I160
tp2311
F3.2
s(I1
I1
I86400
I114714
tp2312
F2.5
s(I2
I1
I86400
I78969
tp2313
F2.5
s(I1
I10
I86400
I57068
tp2314
F2.5
s(I2
I1
I86400
I111130
tp2315
F2.5
s(I1
I0
I0
I225
tp2316
F3.2
s(I1
I3
I172800
I2645
tp2317
F2.5
s(I13
I0
I0
I72388
tp2318
F2.5
s(I0
I0
I518400
I93695
tp2319
F2.5
s(I2
I0
I0
I102654
tp2320
F2.5
s(I1
I0
I0
I1016
tp2321
F3.2
s(I17
I0
I0
I72620
tp2322
F2.5
s(I1
I4
I1209600
I1382014
tp2323
F2.5
s(I1
I8
I259200
I92812
tp2324
F2.5
s(I1
I2
I604800
I584626
tp2325
F2.5
s(I3
I0
I0
I499
tp2326
F3.2
s(I2
I0
I0
I19
tp2327
F3.2
s(I1
I1
I172800
I172120
tp2328
F3.2
s(I1
I2
I518400
I504781
tp2329
F2.5
s(I13
I0
I0
I132
tp2330
F3.2
s(I1
I9
I172800
I3530
tp2331
F2.5
s(I2
I2
I432000
I439138
tp2332
F2.5
s(I0
I0
I518400
I504776
tp2333
F2.5
s(I1
I0
I0
I106
tp2334
F3.2
s(I0
I0
I86400
I61496
tp2335
F2.5
s(I4
I0
I0
I129
tp2336
F3.2
s(I23
I0
I0
I5010
tp2337
F2.5
s(I0
I0
I604800
I941895
tp2338
F2.5
s(I1
I8
I259200
I5505
tp2339
F2.5
s(I3
I0
I0
I120
tp2340
F3.2
s(I2
I0
I0
I170
tp2341
F3.2
s(I1
I3
I172800
I51724
tp2342
F2.5
s(I0
I0
I604800
I604195
tp2343
F2.5
s(I4
I0
I0
I1270
tp2344
F3.2
s(I8
I0
I0
I176
tp2345
F3.2
s(I4
I0
I0
I36437
tp2346
F2.5
s(I1
I2
I432000
I53770
tp2347
F2.5
s(I4
I0
I0
I56
tp2348
F3.2
s(I6
I0
I0
I79081
tp2349
F2.5
s(I1
I0
I0
I687
tp2350
F3.2
s(I15
I0
I0
I143
tp2351
F3.2
s(I2
I2
I432000
I642255
tp2352
F2.5
s(I1
I1
I172800
I324202
tp2353
F2.5
s(I1
I12
I1382400
I1390365
tp2354
F2.5
s(I1
I0
I0
I202
tp2355
F3.2
s(I2
I1
I86400
I37794
tp2356
F2.5
s(I2
I0
I0
I293
tp2357
F3.2
s(I1
I2
I432000
I436909
tp2358
F2.5
s(I1
I1
I86400
I61798
tp2359
F2.5
s(I5
I0
I0
I248
tp2360
F3.2
s(I1
I3
I345600
I215
tp2361
F2.5
s(I1
I4
I604800
I40
tp2362
F2.5
s(I1
I7
I259200
I106521
tp2363
F2.5
s(I1
I1
I86400
I80782
tp2364
F2.5
s(I26
I0
I0
I156
tp2365
F2.5
s(I3
I0
I0
I13997
tp2366
F2.5
s(I0
I0
I86400
I25297
tp2367
F2.5
s(I2
I0
I0
I74
tp2368
F3.2
s(I2
I3
I864000
I849226
tp2369
F2.5
s(I0
I0
I172800
I204491
tp2370
F2.5
s(I0
I0
I172800
I171545
tp2371
F2.5
s(I1
I0
I0
I83
tp2372
F3.2
s(I1
I3
I86400
I35838
tp2373
F2.5
s(I0
I0
I172800
I134677
tp2374
F2.5
s(I2
I2
I518400
I525048
tp2375
F2.5
s(I8
I0
I0
I36539
tp2376
F2.5
s(I7
I0
I0
I1198
tp2377
F3.2
s(I4
I0
I0
I88
tp2378
F3.2
s(I2
I0
I0
I444
tp2379
F3.2
s(I1
I8
I432000
I3751
tp2380
F2.5
s(I2
I0
I0
I79058
tp2381
F2.5
s(I18
I0
I0
I372
tp2382
F2.5
s(I4
I0
I0
I170499
tp2383
F2.5
s(I1
I0
I0
I170
tp2384
F3.2
s(I3
I0
I0
I65
tp2385
F3.2
s(I2
I0
I0
I197
tp2386
F3.2
s(I4
I0
I0
I302
tp2387
F3.2
s(I1
I2
I604800
I801150
tp2388
F2.5
s(I1
I1
I172800
I157419
tp2389
F2.5
s(I1
I4
I1641600
I1645197
tp2390
F2.5
s(I1
I2
I604800
I595693
tp2391
F2.5
s(I6
I2
I432000
I420069
tp2392
F2.5
s(I1
I1
I172800
I169894
tp2393
F2.5
s(I1
I4
I1123200
I1382223
tp2394
F2.5
s(I2
I13
I259200
I282901
tp2395
F2.5
s(I1
I2
I604800
I646485
tp2396
F2.5
s(I0
I0
I172800
I145526
tp2397
F2.5
s(I2
I1
I86400
I166582
tp2398
F2.5
s(I1
I1
I172800
I175565
tp2399
F2.5
s(I9
I0
I0
I57
tp2400
F3.2
s(I1
I0
I0
I51
tp2401
F3.2
s(I1
I3
I518400
I209
tp2402
F2.5
s(I3
I0
I0
I206
tp2403
F3.2
s(I2
I0
I0
I348
tp2404
F3.2
s(I1
I0
I0
I72
tp2405
F3.2
s(I1
I1
I86400
I38539
tp2406
F2.5
s(I1
I2
I432000
I858546
tp2407
F2.5
s(I6
I0
I0
I225
tp2408
F3.2
s(I1
I11
I172800
I3626
tp2409
F2.5
s(I16
I0
I0
I120
tp2410
F3.2
s(I2
I0
I0
I536
tp2411
F3.2
s(I4
I0
I0
I346985
tp2412
F2.5
s(I10
I0
I0
I507
tp2413
F3.2
s(I2
I0
I0
I101
tp2414
F3.2
s(I2
I1
I172800
I13241
tp2415
F2.5
s(I30
I1
I86400
I59112
tp2416
F2.5
s(I1
I1
I172800
I219
tp2417
F2.5
s(I1
I4
I604800
I910388
tp2418
F2.5
s(I1
I1
I172800
I67194
tp2419
F2.5
s(I1
I4
I86400
I40789
tp2420
F2.5
s(I6
I0
I0
I177243
tp2421
F2.5
s(I8
I0
I0
I199
tp2422
F3.2
s(I2
I0
I0
I471
tp2423
F3.2
s(I7
I1
I172800
I270402
tp2424
F2.5
s(I1
I6
I345600
I7877
tp2425
F2.5
s(I7
I0
I0
I298
tp2426
F3.2
s(I1
I2
I604800
I595590
tp2427
F2.5
s(I5
I0
I0
I298
tp2428
F3.2
s(I6
I0
I0
I77581
tp2429
F2.5
s(I1
I8
I86400
I94807
tp2430
F2.5
s(I6
I1
I86400
I58600
tp2431
F2.5
s(I11
I0
I0
I0
tp2432
F1.3
s(I3
I0
I0
I46
tp2433
F3.2
s(I2
I0
I0
I252
tp2434
F3.2
s(I1
I2
I432000
I394252
tp2435
F2.5
s(I6
I0
I0
I321
tp2436
F3.2
s(I7
I0
I0
I10131
tp2437
F2.5
s(I1
I1
I518400
I507264
tp2438
F2.5
s(I0
I0
I86400
I59729
tp2439
F2.5
s(I1
I2
I518400
I490091
tp2440
F2.5
s(I1
I4
I1555200
I1536825
tp2441
F2.5
s(I7
I0
I0
I184
tp2442
F3.2
s(I2
I0
I0
I5
tp2443
F2.18
s(I1
I0
I0
I261
tp2444
F3.2
s(I1
I3
I691200
I722311
tp2445
F2.5
s(I0
I0
I86400
I56962
tp2446
F2.5
s(I0
I0
I518400
I2830104
tp2447
F2.5
s(I1
I0
I0
I705
tp2448
F3.2
s(I1
I1
I172800
I160660
tp2449
F2.5
s(I1
I13
I1900800
I1722335
tp2450
F2.5
s(I9
I0
I0
I35036
tp2451
F2.5
s(I12
I0
I0
I137
tp2452
F3.2
s(I2
I0
I0
I375
tp2453
F3.2
s(I4
I1
I86400
I35341
tp2454
F2.5
s(I1
I5
I1036800
I1112035
tp2455
F2.5
s(I1
I1
I86400
I157247
tp2456
F2.5
s(I21
I0
I0
I73
tp2457
F1.3
s(I1
I9
I259200
I104168
tp2458
F2.5
s(I4
I1
I86400
I102159
tp2459
F2.5
s(I1
I5
I432000
I444074
tp2460
F2.5
s(I1
I10
I172800
I3646
tp2461
F2.5
s(I2
I0
I0
I156
tp2462
F3.2
s(I1
I2
I518400
I495032
tp2463
F2.5
s(I1
I2
I518400
I489301
tp2464
F2.5
s(I1
I2
I432000
I858231
tp2465
F2.5
s(I2
I0
I0
I99672
tp2466
F2.5
s(I7
I0
I0
I88
tp2467
F3.2
s(I1
I3
I1123200
I1123082
tp2468
F2.5
s(I1
I1
I172800
I259283
tp2469
F2.5
s(I1
I1
I86400
I38229
tp2470
F2.5
s(I22
I0
I0
I135
tp2471
F2.5
s(I2
I0
I0
I114373
tp2472
F2.5
s(I1
I8
I1987200
I1722355
tp2473
F2.5
s(I4
I0
I0
I350204
tp2474
F2.5
s(I3
I0
I0
I247
tp2475
F3.2
s(I2
I0
I0
I279
tp2476
F3.2
s(I1
I3
I259200
I186563
tp2477
F2.5
s(I1
I8
I1209600
I1380253
tp2478
F2.5
s(I5
I0
I0
I234
tp2479
F3.2
s(I1
I3
I1123200
I1242402
tp2480
F2.5
s(I1
I16
I259200
I282900
tp2481
F2.5
s(I1
I3
I1123200
I1138296
tp2482
F2.5
s(I9
I0
I0
I281
tp2483
F3.2
s(I0
I0
I864000
I845792
tp2484
F2.5
s(I14
I0
I0
I13233
tp2485
F2.5
s(I3
I0
I0
I494
tp2486
F3.2
s(I2
I0
I0
I60
tp2487
F3.2
s(I1
I0
I0
I366
tp2488
F3.2
s(I0
I0
I1728000
I3367479
tp2489
F2.5
s(I21
I0
I0
I213
tp2490
F2.5
s(I0
I0
I172800
I286709
tp2491
F2.5
s(I8
I0
I0
I286
tp2492
F3.2
s(I0
I0
I86400
I91952
tp2493
F2.5
s(I1
I1
I86400
I36793
tp2494
F2.5
s(I1
I0
I0
I69
tp2495
F3.2
s(I1
I1
I518400
I511658
tp2496
F2.5
s(I3
I0
I0
I53773
tp2497
F2.5
s(I1
I9
I86400
I115473
tp2498
F2.5
s(I2
I1
I86400
I78429
tp2499
F2.5
s(I1
I0
I0
I13615
tp2500
F2.5
s(I1
I1
I86400
I87548
tp2501
F2.5
s(I11
I0
I0
I66521
tp2502
F2.5
s(I2
I0
I0
I183
tp2503
F3.2
s(I1
I1
I345600
I1062664
tp2504
F2.5
s(I5
I0
I0
I10
tp2505
F3.2
s(I1
I1
I86400
I88619
tp2506
F2.5
s(I8
I0
I0
I149
tp2507
F3.2
s(I1
I0
I0
I13318
tp2508
F2.5
s(I1
I5
I259200
I1297
tp2509
F2.5
s(I1
I6
I432000
I209971
tp2510
F2.5
s(I1
I1
I86400
I38667
tp2511
F2.5
s(I0
I0
I172800
I168137
tp2512
F2.5
s(I3
I0
I0
I997
tp2513
F3.2
s(I1
I1
I172800
I190946
tp2514
F2.5
s(I1
I8
I172800
I156491
tp2515
F2.5
s(I1
I0
I0
I37
tp2516
F3.2
s(I0
I0
I172800
I283695
tp2517
F2.5
s(I11
I0
I0
I86
tp2518
F3.2
s(I3
I0
I0
I220
tp2519
F3.2
s(I1
I1
I86400
I36986
tp2520
F2.5
s(I2
I8
I259200
I214181
tp2521
F2.5
s(I6
I0
I0
I147
tp2522
F3.2
s(I1
I8
I1900800
I1663945
tp2523
F2.5
s(I1
I2
I604800
I688688
tp2524
F2.5
s(I9
I1
I86400
I35336
tp2525
F2.5
s(I1
I1
I86400
I36523
tp2526
F2.5
s(I27
I0
I0
I181
tp2527
F2.5
s(I1
I2
I604800
I534985
tp2528
F2.5
s(I2
I0
I0
I87
tp2529
F3.2
s(I1
I2
I604800
I15873
tp2530
F2.5
s(I1
I2
I604800
I646608
tp2531
F2.5
s(I12
I0
I0
I1315
tp2532
F2.5
s(I0
I0
I604800
I601510
tp2533
F2.5
s(I1
I2
I518400
I495110
tp2534
F2.5
s(I2
I0
I0
I66428
tp2535
F2.5
s(I1
I7
I259200
I142349
tp2536
F2.5
s(I1
I3
I864000
I1376658
tp2537
F2.5
s(I1
I7
I259200
I2361
tp2538
F2.5
s(I7
I0
I0
I312
tp2539
F3.2
s(I6
I0
I0
I106
tp2540
F3.2
s(I1
I0
I0
I133
tp2541
F3.2
s(I1
I3
I691200
I684414
tp2542
F2.5
s(I1
I2
I518400
I642187
tp2543
F2.5
s(I1
I8
I259200
I3723
tp2544
F2.5
s(I3
I0
I0
I60
tp2545
F3.2
s(I23
I0
I0
I2580
tp2546
F2.5
s(I0
I0
I172800
I167832
tp2547
F2.5
s(I1
I2
I432000
I199611
tp2548
F2.5
s(I1
I16
I259200
I288193
tp2549
F2.5
s(I3
I0
I0
I731
tp2550
F3.2
s(I6
I1
I86400
I75085
tp2551
F2.5
s(I2
I20
I777600
I900085
tp2552
F2.5
s(I7
I0
I0
I182
tp2553
F3.2
s(I1
I5
I777600
I931756
tp2554
F2.5
s(I0
I0
I172800
I145522
tp2555
F2.5
s(I24
I0
I0
I105642
tp2556
F2.5
s(I2
I2
I518400
I528484
tp2557
F2.5
s(I1
I3
I864000
I868732
tp2558
F2.5
s(I23
I0
I0
I213
tp2559
F2.5
s(I1
I1
I86400
I153125
tp2560
F2.5
s(I17
I0
I0
I90
tp2561
F1.43
s(I9
I0
I0
I36
tp2562
F1.3
s(I1
I2
I604800
I595727
tp2563
F2.5
s(I1
I1
I86400
I96028
tp2564
F2.5
s(I11
I0
I0
I143
tp2565
F3.2
s(I4
I0
I0
I229
tp2566
F3.2
s(I2
I0
I0
I377
tp2567
F3.2
s(I1
I4
I1209600
I1127160
tp2568
F2.5
s(I1
I1
I172800
I186299
tp2569
F2.5
s(I1
I2
I518400
I495074
tp2570
F2.5
s(I1
I3
I1382400
I1373431
tp2571
F2.5
s(I1
I1
I86400
I98247
tp2572
F2.5
s(I1
I0
I0
I497
tp2573
F3.2
s(I1
I1
I86400
I1784
tp2574
F2.5
s(I3
I0
I0
I412
tp2575
F3.2
s(I2
I0
I0
I142
tp2576
F3.2
s(I2
I2
I432000
I53831
tp2577
F2.5
s(I0
I0
I172800
I286765
tp2578
F2.5
s(I3
I1
I86400
I25578
tp2579
F2.5
s(I1
I0
I0
I99547
tp2580
F2.5
s(I8
I0
I0
I172
tp2581
F3.2
s(I1
I3
I86400
I94466
tp2582
F2.5
s(I7
I0
I0
I86
tp2583
F3.2
s(I1
I4
I86400
I49416
tp2584
F2.5
s(I1
I2
I432000
I396903
tp2585
F2.5
s(I1
I7
I172800
I106425
tp2586
F2.5
s(I5
I0
I0
I170485
tp2587
F2.5
s(I2
I12
I172800
I181246
tp2588
F2.5
s(I2
I5
I172800
I106157
tp2589
F2.5
s(I2
I1
I172800
I884145
tp2590
F2.5
s(I1
I6
I691200
I675728
tp2591
F2.5
s(I1
I7
I1123200
I1094955
tp2592
F2.5
s(I2
I5
I345600
I198970
tp2593
F2.5
s(I1
I1
I86400
I101041
tp2594
F2.5
s(I1
I7
I1296000
I1315261
tp2595
F2.5
s(I1
I12
I1468800
I1558305
tp2596
F2.5
s(I1
I0
I0
I238
tp2597
F3.2
s(I4
I0
I0
I350146
tp2598
F2.5
s(I0
I0
I172800
I323736
tp2599
F2.5
s(I28
I0
I0
I331
tp2600
F2.5
s(I6
I0
I0
I26327
tp2601
F2.5
s(I3
I0
I0
I5
tp2602
F2.93
s(I2
I0
I0
I281
tp2603
F3.2
s(I1
I2
I432000
I436865
tp2604
F2.5
s(I1
I2
I604800
I44284
tp2605
F2.5
s(I1
I0
I0
I175471
tp2606
F2.5
s(I1
I2
I518400
I490006
tp2607
F2.5
s(I2
I2
I432000
I419927
tp2608
F2.5
s(I1
I6
I518400
I537502
tp2609
F2.5
s(I1
I1
I172800
I67738
tp2610
F2.5
s(I0
I0
I172800
I167640
tp2611
F2.5
s(I1
I10
I86400
I11363
tp2612
F2.5
s(I1
I2
I432000
I423966
tp2613
F2.5
s(I0
I0
I86400
I112265
tp2614
F2.5
s(I1
I2
I518400
I98016
tp2615
F2.5
s(I2
I1
I86400
I105268
tp2616
F2.5
s(I0
I0
I86400
I92221
tp2617
F2.5
s(I1
I0
I0
I200
tp2618
F3.2
s(I1
I2
I432000
I436769
tp2619
F2.5
s(I0
I0
I172800
I167759
tp2620
F2.5
s(I2
I1
I172800
I92720
tp2621
F2.5
s(I2
I1
I86400
I35275
tp2622
F2.5
s(I5
I0
I0
I4
tp2623
F3.2
s(I1
I0
I0
I1028
tp2624
F3.2
s(I1
I2
I604800
I609077
tp2625
F2.5
s(I13
I0
I0
I2548
tp2626
F2.5
s(I16
I0
I0
I157
tp2627
F3.2
s(I1
I2
I604800
I642442
tp2628
F2.5
s(I1
I2
I518400
I558103
tp2629
F2.5
s(I17
I0
I0
I236
tp2630
F2.5
s(I2
I2
I604800
I595947
tp2631
F2.5
s(I0
I0
I172800
I92013
tp2632
F2.5
s(I24
I2
I518400
I495785
tp2633
F2.5
s(I4
I0
I0
I43
tp2634
F3.2
s(I1
I4
I259200
I4399
tp2635
F2.5
s(I1
I0
I0
I700
tp2636
F3.2
s(I1
I2
I518400
I648303
tp2637
F2.5
s(I4
I0
I0
I26278
tp2638
F2.5
s(I1
I1
I86400
I3883
tp2639
F2.5
s(I2
I1
I86400
I92196
tp2640
F2.5
s(I4
I0
I0
I72606
tp2641
F2.5
s(I4
I0
I0
I220
tp2642
F3.2
s(I1
I4
I1728000
I1726860
tp2643
F2.5
s(I2
I1
I172800
I132126
tp2644
F2.5
s(I1
I2
I518400
I538166
tp2645
F2.5
s(I2
I0
I0
I121740
tp2646
F2.5
s(I3
I4
I2073600
I2098144
tp2647
F2.5
s(I2
I0
I0
I89
tp2648
F3.2
s(I0
I0
I1296000
I1548825
tp2649
F2.5
s(I1
I6
I864000
I850107
tp2650
F2.5
s(I7
I0
I0
I31
tp2651
F3.2
s(I1
I2
I432000
I437001
tp2652
F2.5
s(I10
I0
I0
I244
tp2653
F3.2
s(I1
I1
I172800
I172175
tp2654
F2.5
s(I11
I0
I0
I221
tp2655
F3.2
s(I2
I0
I0
I459
tp2656
F3.2
s(I1
I3
I777600
I772436
tp2657
F2.5
s(I10
I0
I0
I53830
tp2658
F2.5
s(I6
I0
I0
I20
tp2659
F1.3
s(I5
I0
I0
I278
tp2660
F3.2
s(I1
I6
I345600
I306299
tp2661
F2.5
s(I5
I0
I0
I66537
tp2662
F2.5
s(I1
I7
I432000
I3090
tp2663
F2.5
s(I2
I2
I432000
I437632
tp2664
F2.5
s(I1
I1
I86400
I87521
tp2665
F2.5
s(I1
I2
I604800
I600660
tp2666
F2.5
s(I3
I0
I0
I50
tp2667
F3.2
s(I1
I3
I259200
I197
tp2668
F2.5
s(I1
I0
I0
I3788
tp2669
F2.5
s(I6
I0
I0
I13252
tp2670
F2.5
s(I2
I2
I604800
I609545
tp2671
F2.5
s(I8
I0
I0
I122
tp2672
F3.2
s(I0
I0
I1382400
I3746647
tp2673
F2.5
s(I7
I0
I0
I132
tp2674
F3.2
s(I1
I2
I432000
I419742
tp2675
F2.5
s(I1
I3
I1123200
I1242410
tp2676
F2.5
s(I15
I2
I518400
I495827
tp2677
F2.5
s(I28
I0
I0
I128
tp2678
F1.75
s(I2
I2
I432000
I435820
tp2679
F2.5
s(I18
I0
I0
I164
tp2680
F2.5
s(I1
I2
I518400
I556253
tp2681
F2.5
s(I1
I0
I0
I0
tp2682
F1.3
s(I4
I0
I0
I350128
tp2683
F2.5
s(I1
I1
I86400
I157426
tp2684
F2.5
s(I4
I0
I0
I235
tp2685
F3.2
s(I3
I0
I0
I187
tp2686
F3.2
s(I1
I11
I259200
I213504
tp2687
F2.5
s(I1
I6
I86400
I40908
tp2688
F2.5
s(I15
I0
I0
I320
tp2689
F3.0
s(I1
I3
I604800
I648264
tp2690
F2.5
s(I5
I0
I0
I182
tp2691
F3.2
s(I1
I1
I86400
I113620
tp2692
F2.5
s(I6
I0
I0
I1561
tp2693
F2.5
s(I3
I0
I0
I402
tp2694
F3.2
s(I2
I0
I0
I112
tp2695
F3.2
s(I2
I2
I604800
I646581
tp2696
F2.5
s(I1
I2
I432000
I641889
tp2697
F2.5
s(I1
I1
I172800
I206
tp2698
F2.5
s(I1
I0
I0
I3756
tp2699
F2.5
s(I0
I0
I86400
I77954
tp2700
F2.5
s(I2
I1
I86400
I111761
tp2701
F2.5
s(I1
I3
I1036800
I1022377
tp2702
F2.5
s(I1
I10
I950400
I930998
tp2703
F2.5
s(I1
I2
I604800
I15831
tp2704
F2.5
s(I1
I6
I691200
I675726
tp2705
F2.5
s(I7
I0
I0
I351
tp2706
F3.2
s(I1
I5
I345600
I248491
tp2707
F2.5
s(I5
I0
I0
I319
tp2708
F3.2
s(I1
I1
I432000
I790935
tp2709
F2.5
s(I1
I1
I172800
I180478
tp2710
F2.5
s(I1
I4
I1296000
I1286408
tp2711
F2.5
s(I1
I3
I432000
I480895
tp2712
F2.5
s(I3
I0
I0
I27
tp2713
F3.2
s(I1
I2
I518400
I515054
tp2714
F2.5
s(I1
I6
I1209600
I1240737
tp2715
F2.5
s(I1
I10
I777600
I850104
tp2716
F2.5
s(I4
I1
I172800
I286982
tp2717
F2.5
s(I0
I0
I86400
I38237
tp2718
F2.5
s(I2
I0
I0
I16
tp2719
F3.2
s(I1
I0
I0
I13291
tp2720
F2.5
s(I1
I2
I432000
I1063207
tp2721
F2.5
s(I2
I2
I604800
I646613
tp2722
F2.5
s(I1
I2
I432000
I984352
tp2723
F2.5
s(I1
I2
I604800
I632394
tp2724
F2.5
s(I2
I8
I345600
I333558
tp2725
F2.5
s(I2
I2
I432000
I439139
tp2726
F2.5
s(I42
I0
I0
I151
tp2727
F1.3
s(I1
I3
I604800
I910866
tp2728
F2.5
s(I1
I0
I0
I105
tp2729
F3.2
s(I10
I0
I0
I36510
tp2730
F2.5
s(I11
I0
I0
I234
tp2731
F3.2
s(I0
I0
I86400
I101976
tp2732
F2.5
s(I2
I3
I86400
I35830
tp2733
F2.5
s(I5
I0
I0
I351
tp2734
F3.2
s(I2
I1
I86400
I72486
tp2735
F2.5
s(I1
I2
I518400
I4303
tp2736
F2.5
s(I2
I0
I0
I170352
tp2737
F2.5
s(I1
I2
I604800
I595756
tp2738
F2.5
s(I1
I1
I172800
I172496
tp2739
F2.5
s(I0
I0
I172800
I177832
tp2740
F2.5
s(I0
I0
I518400
I476674
tp2741
F2.5
s(I5
I0
I0
I118
tp2742
F3.2
s(I4
I0
I0
I272
tp2743
F3.2
s(I2
I0
I0
I14273
tp2744
F2.5
s(I1
I4
I1728000
I1492992
tp2745
F2.5
s(I8
I0
I0
I177
tp2746
F3.2
s(I0
I0
I86400
I91971
tp2747
F2.5
s(I6
I1
I172800
I270021
tp2748
F2.5
s(I1
I11
I1641600
I1610164
tp2749
F2.5
s(I1
I5
I518400
I1286
tp2750
F2.5
s(I4
I0
I0
I57
tp2751
F3.2
s(I2
I3
I777600
I788402
tp2752
F2.5
s(I1
I5
I432000
I3727
tp2753
F2.5
s(I1
I2
I518400
I542626
tp2754
F2.5
s(I0
I0
I172800
I170868
tp2755
F2.5
s(I18
I0
I0
I277
tp2756
F2.5
s(I1
I3
I1296000
I1558192
tp2757
F2.5
s(I3
I0
I0
I224
tp2758
F3.2
s(I1
I11
I172800
I3628
tp2759
F2.5
s(I2
I8
I518400
I595576
tp2760
F2.5
s(I6
I0
I0
I143
tp2761
F3.2
s(I9
I0
I0
I278
tp2762
F3.2
s(I1
I0
I0
I800
tp2763
F3.2
s(I3
I1
I86400
I112662
tp2764
F2.5
s(I14
I0
I0
I13188
tp2765
F2.5
s(I0
I0
I432000
I6180123
tp2766
F2.5
s(I2
I0
I0
I121726
tp2767
F2.5
s(I10
I0
I0
I465
tp2768
F3.2
s(I2
I0
I0
I75
tp2769
F3.2
s(I14
I0
I0
I1219
tp2770
F2.5
s(I2
I4
I172800
I44156
tp2771
F2.5
s(I1
I6
I86400
I35882
tp2772
F2.5
s(I1
I0
I0
I567
tp2773
F3.2
s(I3
I1
I172800
I324353
tp2774
F2.5
s(I1
I2
I432000
I399272
tp2775
F2.5
s(I4
I0
I0
I89
tp2776
F3.2
s(I2
I0
I0
I445
tp2777
F3.2
s(I1
I9
I950400
I943720
tp2778
F2.5
s(I2
I0
I0
I13942
tp2779
F2.5
s(I1
I12
I1123200
I1103336
tp2780
F2.5
s(I1
I3
I777600
I772450
tp2781
F2.5
s(I7
I0
I0
I260
tp2782
F3.2
s(I1
I7
I950400
I1041569
tp2783
F2.5
s(I3
I0
I0
I64
tp2784
F3.2
s(I2
I0
I0
I194
tp2785
F3.2
s(I1
I1
I86400
I91310
tp2786
F2.5
s(I0
I0
I172800
I324338
tp2787
F2.5
s(I47
I0
I0
I292
tp2788
F2.5
s(I8
I0
I0
I104
tp2789
F3.2
s(I2
I6
I259200
I3607
tp2790
F2.5
s(I1
I1
I86400
I115232
tp2791
F2.5
s(I1
I13
I1296000
I1648638
tp2792
F2.5
s(I17
I0
I0
I263
tp2793
F2.5
s(I6
I0
I0
I55
tp2794
F3.2
s(I1
I0
I0
I475
tp2795
F3.2
s(I1
I14
I691200
I697434
tp2796
F2.5
s(I1
I3
I172800
I53647
tp2797
F2.5
s(I4
I0
I0
I2506
tp2798
F2.5
s(I1
I1
I432000
I423987
tp2799
F2.5
s(I0
I0
I432000
I435909
tp2800
F2.5
s(I3
I1
I172800
I171655
tp2801
F2.5
s(I2
I18
I691200
I919113
tp2802
F2.5
s(I3
I1
I172800
I92436
tp2803
F2.5
s(I1
I5
I518400
I558717
tp2804
F2.5
s(I1
I8
I86400
I10350
tp2805
F2.5
s(I1
I6
I259200
I3717
tp2806
F2.5
s(I1
I1
I86400
I281363
tp2807
F2.5
s(I2
I1
I86400
I57237
tp2808
F2.5
s(I1
I0
I0
I50
tp2809
F3.2
s(I1
I6
I1728000
I1853072
tp2810
F2.5
s(I3
I0
I0
I201
tp2811
F3.2
s(I18
I0
I0
I105522
tp2812
F2.5
s(I1
I2
I604800
I688685
tp2813
F2.5
s(I1
I2
I604800
I595813
tp2814
F2.5
s(I0
I0
I2764800
I2751458
tp2815
F2.5
s(I2
I1
I86400
I77909
tp2816
F2.5
s(I3
I0
I0
I416
tp2817
F3.2
s(I2
I0
I0
I98
tp2818
F3.2
s(I2
I0
I0
I10132
tp2819
F2.5
s(I0
I0
I172800
I180472
tp2820
F2.5
s(I1
I3
I1036800
I1061490
tp2821
F2.5
s(I10
I0
I0
I145
tp2822
F3.2
s(I5
I0
I0
I74489
tp2823
F2.5
s(I1
I1
I172800
I172272
tp2824
F2.5
s(I1
I1
I518400
I967070
tp2825
F2.5
s(I1
I7
I345600
I198975
tp2826
F2.5
s(I4
I0
I0
I26339
tp2827
F2.5
s(I2
I1
I86400
I111115
tp2828
F2.5
s(I4
I0
I0
I138
tp2829
F3.2
s(I3
I0
I0
I41
tp2830
F3.2
s(I1
I1
I172800
I153143
tp2831
F2.5
s(I0
I0
I86400
I13026
tp2832
F2.5
s(I22
I1
I172800
I263041
tp2833
F2.5
s(I2
I0
I0
I13331
tp2834
F2.5
s(I18
I0
I0
I565
tp2835
F2.5
s(I0
I0
I950400
I1145426
tp2836
F2.5
s(I2
I1
I86400
I111378
tp2837
F2.5
s(I2
I1
I86400
I88284
tp2838
F2.5
s(I1
I2
I604800
I568643
tp2839
F2.5
s(I1
I12
I604800
I625620
tp2840
F2.5
s(I2
I1
I86400
I111029
tp2841
F2.5
s(I3
I0
I0
I256
tp2842
F3.2
s(I2
I0
I0
I2
tp2843
F2.04
s(I1
I0
I0
I260
tp2844
F3.2
s(I1
I5
I86400
I35944
tp2845
F2.5
s(I1
I0
I0
I161690
tp2846
F2.5
s(I1
I2
I432000
I1334
tp2847
F2.5
s(I13
I0
I0
I149
tp2848
F3.2
s(I1
I2
I518400
I525079
tp2849
F2.5
s(I8
I0
I0
I296
tp2850
F3.2
s(I16
I1
I86400
I111959
tp2851
F2.5
s(I1
I3
I259200
I2742
tp2852
F2.5
s(I0
I0
I172800
I186820
tp2853
F2.5
s(I0
I0
I518400
I504775
tp2854
F2.5
s(I1
I0
I0
I27
tp2855
F3.2
s(I3
I0
I0
I150
tp2856
F3.2
s(I2
I0
I0
I372
tp2857
F3.2
s(I1
I2
I432000
I445984
tp2858
F2.5
s(I1
I1
I172800
I177919
tp2859
F2.5
s(I1
I2
I518400
I1146339
tp2860
F2.5
s(I1
I0
I0
I882
tp2861
F3.2
s(I17
I0
I0
I2527
tp2862
F2.5
s(I0
I0
I172800
I106335
tp2863
F2.5
s(I10
I0
I0
I419
tp2864
F3.2
s(I1
I4
I604800
I603479
tp2865
F2.5
s(I2
I0
I0
I157
tp2866
F3.2
s(I1
I2
I518400
I967970
tp2867
F2.5
s(I5
I0
I0
I96
tp2868
F3.2
s(I1
I4
I345600
I50
tp2869
F2.5
s(I1
I0
I0
I13532
tp2870
F2.5
s(I2
I1
I172800
I161785
tp2871
F2.5
s(I5
I0
I0
I139754
tp2872
F2.5
s(I5
I0
I0
I2621
tp2873
F2.5
s(I1
I2
I518400
I186631
tp2874
F2.5
s(I1
I1
I172800
I172235
tp2875
F2.5
s(I0
I0
I86400
I469129
tp2876
F2.5
s(I1
I2
I518400
I15827
tp2877
F2.5
s(I17
I0
I0
I172248
tp2878
F2.5
s(I1
I4
I172800
I53737
tp2879
F2.5
s(I1
I3
I1123200
I1138304
tp2880
F2.5
s(I1
I8
I259200
I214109
tp2881
F2.5
s(I1
I0
I0
I40866
tp2882
F2.5
s(I1
I1
I172800
I199072
tp2883
F2.5
s(I1
I3
I432000
I2872
tp2884
F2.5
s(I1
I1
I86400
I112853
tp2885
F2.5
s(I1
I4
I691200
I931757
tp2886
F2.5
s(I1
I3
I864000
I968285
tp2887
F2.5
s(I2
I0
I0
I61
tp2888
F3.2
s(I1
I0
I0
I365
tp2889
F3.2
s(I1
I10
I518400
I525061
tp2890
F2.5
s(I0
I0
I432000
I446286
tp2891
F2.5
s(I13
I0
I0
I110
tp2892
F3.2
s(I6
I0
I0
I613
tp2893
F3.2
s(I1
I17
I1209600
I1381985
tp2894
F2.5
s(I0
I0
I172800
I170889
tp2895
F2.5
s(I2
I0
I0
I1273
tp2896
F3.2
s(I2
I0
I0
I77775
tp2897
F2.5
s(I1
I10
I1296000
I1721256
tp2898
F2.5
s(I33
I0
I0
I85913
tp2899
F2.5
s(I2
I2
I432000
I424012
tp2900
F2.5
s(I5
I0
I0
I370
tp2901
F3.2
s(I2
I0
I0
I13509
tp2902
F2.5
s(I1
I2
I604800
I604580
tp2903
F2.5
s(I1
I10
I432000
I308594
tp2904
F2.5
s(I1
I0
I0
I859
tp2905
F3.2
s(I1
I7
I86400
I94710
tp2906
F2.5
s(I17
I0
I0
I482
tp2907
F2.5
s(I1
I1
I172800
I156982
tp2908
F2.5
s(I3
I0
I0
I86
tp2909
F3.2
s(I2
I0
I0
I180
tp2910
F3.2
s(I28
I1
I86400
I113134
tp2911
F2.5
s(I2
I0
I0
I77792
tp2912
F2.5
s(I2
I2
I518400
I495781
tp2913
F2.5
s(I1
I2
I518400
I477241
tp2914
F2.5
s(I4
I0
I0
I54183
tp2915
F2.5
s(I1
I3
I950400
I928151
tp2916
F2.5
s(I1
I1
I172800
I477643
tp2917
F2.5
s(I1
I2
I518400
I44245
tp2918
F2.5
s(I10
I0
I0
I99
tp2919
F3.2
s(I9
I0
I0
I36707
tp2920
F2.5
s(I5
I0
I0
I42102
tp2921
F2.5
s(I0
I0
I172800
I168138
tp2922
F2.5
s(I0
I0
I172800
I170857
tp2923
F2.5
s(I0
I0
I432000
I437649
tp2924
F2.5
s(I3
I1
I172800
I146699
tp2925
F2.5
s(I2
I0
I0
I66273
tp2926
F2.5
s(I4
I0
I0
I207
tp2927
F3.2
s(I3
I0
I0
I223
tp2928
F3.2
s(I6
I0
I0
I144
tp2929
F3.2
s(I24
I0
I0
I193
tp2930
F2.5
s(I2
I0
I0
I523
tp2931
F3.2
s(I7
I0
I0
I233
tp2932
F3.2
s(I1
I2
I432000
I3750
tp2933
F2.5
s(I1
I1
I86400
I36520
tp2934
F2.5
s(I1
I2
I604800
I199838
tp2935
F2.5
s(I2
I0
I0
I84
tp2936
F3.2
s(I1
I0
I0
I639
tp2937
F3.2
s(I1
I1
I172800
I210880
tp2938
F2.5
s(I4
I0
I0
I826
tp2939
F3.2
s(I1
I2
I432000
I423968
tp2940
F2.5
s(I2
I2
I518400
I495954
tp2941
F2.5
s(I1
I5
I1555200
I1812798
tp2942
F2.5
s(I1
I2
I432000
I437093
tp2943
F2.5
s(I1
I2
I432000
I439139
tp2944
F2.5
s(I1
I2
I604800
I91634
tp2945
F2.5
s(I2
I19
I604800
I682536
tp2946
F2.5
s(I7
I0
I0
I315
tp2947
F3.2
s(I1
I2
I432000
I434182
tp2948
F2.5
s(I2
I1
I86400
I38219
tp2949
F2.5
s(I1
I9
I345600
I372732
tp2950
F2.5
s(I1
I0
I0
I132
tp2951
F3.2
s(I5
I0
I0
I9372
tp2952
F2.5
s(I4
I0
I0
I114346
tp2953
F2.5
s(I4
I1
I86400
I94351
tp2954
F2.5
s(I2
I1
I172800
I157599
tp2955
F2.5
s(I0
I0
I604800
I581909
tp2956
F2.5
s(I1
I1
I518400
I478416
tp2957
F2.5
s(I1
I8
I172800
I106075
tp2958
F2.5
s(I1
I1
I86400
I36360
tp2959
F2.5
s(I2
I7
I172800
I156414
tp2960
F2.5
s(I2
I13
I86400
I85042
tp2961
F2.5
s(I2
I1
I172800
I324303
tp2962
F2.5
s(I2
I1
I86400
I113899
tp2963
F2.5
s(I1
I0
I0
I754
tp2964
F3.2
s(I14
I0
I0
I13014
tp2965
F2.5
s(I1
I15
I2764800
I2832270
tp2966
F2.5
s(I9
I0
I0
I35
tp2967
F1.3
s(I1
I0
I0
I13
tp2968
F2.81
s(I0
I0
I172800
I134635
tp2969
F2.5
s(I3
I0
I0
I164
tp2970
F3.2
s(I2
I1
I172800
I284388
tp2971
F2.5
s(I0
I0
I1900800
I2134541
tp2972
F2.5
s(I2
I2
I432000
I432403
tp2973
F2.5
s(I6
I0
I0
I203
tp2974
F3.2
s(I6
I1
I86400
I88609
tp2975
F2.5
s(I3
I3
I950400
I932533
tp2976
F2.5
s(I1
I0
I0
I13815
tp2977
F2.5
s(I1
I15
I432000
I394246
tp2978
F2.5
s(I2
I0
I0
I143
tp2979
F3.2
s(I1
I8
I172800
I149955
tp2980
F2.5
s(I2
I0
I0
I14245
tp2981
F2.5
s(I1
I1
I172800
I145179
tp2982
F2.5
s(I1
I6
I345600
I387014
tp2983
F2.5
s(I1
I0
I0
I406
tp2984
F3.2
s(I1
I2
I518400
I186645
tp2985
F2.5
s(I2
I0
I0
I10337
tp2986
F2.5
s(I6
I0
I0
I1182
tp2987
F3.2
s(I7
I0
I0
I332
tp2988
F3.2
s(I2
I2
I432000
I437921
tp2989
F2.5
s(I6
I0
I0
I569
tp2990
F3.2
s(I4
I0
I0
I29
tp2991
F3.2
s(I1
I1
I86400
I126306
tp2992
F2.5
s(I1
I2
I604800
I489340
tp2993
F2.5
s(I2
I0
I0
I14026
tp2994
F2.5
s(I6
I0
I0
I2595
tp2995
F2.5
s(I2
I2
I518400
I476670
tp2996
F2.5
s(I25
I0
I0
I127
tp2997
F2.5
s(I1
I1
I86400
I2267
tp2998
F2.5
s(I2
I0
I0
I298
tp2999
F3.2
s(I1
I1
I86400
I115063
tp3000
F2.5
s(I4
I0
I0
I5070
tp3001
F2.5
s(I3
I0
I0
I4
tp3002
F2.87
s(I4
I0
I0
I82689
tp3003
F2.5
s(I1
I4
I172800
I156411
tp3004
F2.5
s(I1
I7
I259200
I212595
tp3005
F2.5
s(I1
I2
I518400
I524811
tp3006
F2.5
s(I1
I1
I86400
I62
tp3007
F2.5
s(I2
I2
I604800
I655194
tp3008
F2.5
s(I6
I0
I0
I9631
tp3009
F2.5
s(I1
I1
I172800
I106457
tp3010
F2.5
s(I1
I1
I86400
I113255
tp3011
F2.5
s(I26
I0
I0
I161
tp3012
F2.5
s(I2
I0
I0
I47
tp3013
F3.2
s(I2
I10
I345600
I234970
tp3014
F2.5
s(I0
I0
I518400
I559146
tp3015
F2.5
s(I1
I2
I518400
I520539
tp3016
F2.5
s(I1
I8
I432000
I199636
tp3017
F2.5
s(I1
I0
I0
I118
tp3018
F3.2
s(I2
I0
I0
I67
tp3019
F3.2
s(I4
I0
I0
I189
tp3020
F3.2
s(I2
I0
I0
I401
tp3021
F3.2
s(I2
I3
I259200
I53655
tp3022
F2.5
s(I5
I0
I0
I14698
tp3023
F2.5
s(I1
I2
I518400
I495034
tp3024
F2.5
s(I6
I0
I0
I34
tp3025
F3.2
s(I1
I9
I86400
I2276
tp3026
F2.5
s(I1
I2
I518400
I492928
tp3027
F2.5
s(I1
I2
I518400
I515327
tp3028
F2.5
s(I2
I0
I0
I79031
tp3029
F2.5
s(I1
I2
I604800
I604586
tp3030
F2.5
s(I1
I0
I0
I845
tp3031
F3.2
s(I1
I9
I259200
I152257
tp3032
F2.5
s(I3
I0
I0
I100
tp3033
F3.2
s(I2
I0
I0
I166
tp3034
F3.2
s(I2
I0
I0
I10216
tp3035
F2.5
s(I6
I2
I432000
I450164
tp3036
F2.5
s(I1
I1
I172800
I178633
tp3037
F2.5
s(I1
I2
I604800
I609076
tp3038
F2.5
s(I8
I0
I0
I132
tp3039
F3.2
s(I1
I12
I259200
I214183
tp3040
F2.5
s(I9
I0
I0
I82792
tp3041
F2.5
s(I0
I0
I86400
I139496
tp3042
F2.5
s(I4
I0
I0
I52
tp3043
F3.2
s(I2
I0
I0
I66424
tp3044
F2.5
s(I2
I0
I0
I1163
tp3045
F3.2
s(I1
I0
I0
I699
tp3046
F3.2
s(I2
I2
I518400
I496137
tp3047
F2.5
s(I3
I2
I432000
I424218
tp3048
F2.5
s(I16
I0
I0
I268
tp3049
F3.2
s(I1
I1
I345600
I325579
tp3050
F2.5
s(I1
I2
I604800
I610075
tp3051
F2.5
s(I4
I0
I0
I221
tp3052
F3.2
s(I3
I0
I0
I237
tp3053
F3.2
s(I23
I0
I0
I267
tp3054
F2.5
s(I1
I11
I172800
I156409
tp3055
F2.5
s(I2
I0
I0
I54147
tp3056
F2.5
s(I2
I0
I0
I70
tp3057
F3.2
s(I0
I0
I172800
I298784
tp3058
F2.5
s(I0
I0
I432000
I424199
tp3059
F2.5
s(I0
I0
I86400
I126056
tp3060
F2.5
s(I2
I1
I172800
I177822
tp3061
F2.5
s(I7
I0
I0
I30
tp3062
F3.2
s(I5
I0
I0
I698
tp3063
F3.2
s(I1
I3
I1123200
I1112091
tp3064
F2.5
s(I1
I5
I172800
I131993
tp3065
F2.5
s(I0
I0
I172800
I172204
tp3066
F2.5
s(I1
I15
I604800
I565215
tp3067
F2.5
s(I1
I1
I86400
I210853
tp3068
F2.5
s(I2
I2
I518400
I524932
tp3069
F2.5
s(I2
I1
I86400
I126968
tp3070
F2.5
s(I1
I10
I86400
I41056
tp3071
F2.5
s(I1
I0
I0
I182
tp3072
F3.2
s(I1
I2
I604800
I584693
tp3073
F2.5
s(I0
I0
I172800
I184703
tp3074
F2.5
s(I1
I5
I172800
I1291
tp3075
F2.5
s(I3
I0
I0
I77
tp3076
F3.2
s(I2
I0
I0
I209
tp3077
F3.2
s(I1
I9
I86400
I94804
tp3078
F2.5
s(I4
I1
I172800
I145521
tp3079
F2.5
s(I5
I0
I0
I44
tp3080
F3.2
s(I2
I2
I518400
I479516
tp3081
F2.5
s(I1
I1
I86400
I110277
tp3082
F2.5
s(I1
I2
I432000
I419737
tp3083
F2.5
s(I3
I0
I0
I292
tp3084
F3.2
s(I1
I2
I432000
I393397
tp3085
F2.5
s(I11
I0
I0
I2479
tp3086
F2.5
s(I3
I0
I0
I186894
tp3087
F2.5
s(I1
I0
I0
I740
tp3088
F3.2
s(I0
I0
I172800
I218945
tp3089
F2.5
s(I13
I0
I0
I13201
tp3090
F2.5
s(I0
I0
I86400
I112305
tp3091
F2.5
s(I1
I0
I0
I63
tp3092
F3.2
s(I1
I3
I604800
I341879
tp3093
F2.5
s(I23
I0
I0
I2516
tp3094
F2.5
s(I1
I2
I604800
I609404
tp3095
F2.5
s(I5
I0
I0
I181
tp3096
F3.2
s(I1
I4
I172800
I50335
tp3097
F2.5
s(I1
I2
I604800
I595734
tp3098
F2.5
s(I1
I3
I604800
I568464
tp3099
F2.5
s(I1
I2
I432000
I186615
tp3100
F2.5
s(I0
I0
I604800
I330225
tp3101
F2.5
s(I3
I0
I0
I429
tp3102
F3.2
s(I2
I0
I0
I113
tp3103
F3.2
s(I5
I1
I86400
I82594
tp3104
F2.5
s(I1
I4
I259200
I142366
tp3105
F2.5
s(I0
I0
I172800
I324165
tp3106
F2.5
s(I2
I1
I172800
I324817
tp3107
F2.5
s(I5
I0
I0
I76
tp3108
F3.2
s(I2
I2
I518400
I495842
tp3109
F2.5
s(I2
I0
I0
I99645
tp3110
F2.5
s(I1
I0
I0
I621
tp3111
F3.2
s(I1
I1
I172800
I145189
tp3112
F2.5
s(I38
I1
I86400
I59188
tp3113
F2.5
s(I9
I0
I0
I174
tp3114
F3.2
s(I1
I2
I604800
I15830
tp3115
F2.5
s(I1
I2
I518400
I586835
tp3116
F2.5
s(I1
I2
I604800
I341943
tp3117
F2.5
s(I1
I0
I0
I1827
tp3118
F2.5
s(I15
I0
I0
I216
tp3119
F3.2
s(I2
I2
I518400
I476652
tp3120
F2.5
s(I7
I0
I0
I350
tp3121
F3.2
s(I0
I0
I432000
I2237036
tp3122
F2.5
s(I2
I0
I0
I687
tp3123
F3.2
s(I1
I1
I86400
I80460
tp3124
F2.5
s(I1
I8
I518400
I241551
tp3125
F2.5
s(I3
I0
I0
I26
tp3126
F3.2
s(I1
I2
I518400
I967871
tp3127
F2.5
s(I0
I0
I86400
I13013
tp3128
F2.5
s(I2
I0
I0
I13358
tp3129
F2.5
s(I1
I3
I691200
I919095
tp3130
F2.5
s(I9
I0
I0
I380
tp3131
F3.2
s(I1
I0
I0
I1014
tp3132
F3.2
s(I7
I0
I0
I172
tp3133
F3.2
s(I28
I0
I0
I102580
tp3134
F2.5
s(I20
I0
I0
I102562
tp3135
F2.5
s(I1
I8
I259200
I92810
tp3136
F2.5
s(I3
I0
I0
I14022
tp3137
F2.5
s(I2
I0
I0
I17
tp3138
F3.2
s(I0
I0
I86400
I156697
tp3139
F2.5
s(I2
I1
I172800
I884027
tp3140
F2.5
s(I1
I2
I604800
I604202
tp3141
F2.5
s(I1
I10
I259200
I3703
tp3142
F2.5
s(I1
I1
I172800
I134434
tp3143
F2.5
s(I1
I2
I518400
I495180
tp3144
F2.5
s(I1
I0
I0
I104
tp3145
F3.2
s(I6
I0
I0
I651
tp3146
F3.2
s(I1
I4
I86400
I96043
tp3147
F2.5
s(I1
I2
I518400
I494984
tp3148
F2.5
s(I5
I0
I0
I350
tp3149
F3.2
s(I1
I17
I432000
I392847
tp3150
F2.5
s(I3
I0
I0
I958
tp3151
F3.2
s(I16
I0
I0
I344
tp3152
F2.5
s(I2
I0
I0
I168
tp3153
F3.2
s(I6
I0
I0
I53935
tp3154
F2.5
s(I1
I3
I345600
I3011
tp3155
F2.5
s(I6
I0
I0
I309
tp3156
F3.2
s(I8
I0
I0
I178
tp3157
F3.2
s(I1
I0
I0
I598
tp3158
F3.2
s(I1
I1
I86400
I69581
tp3159
F2.5
s(I10
I0
I0
I71
tp3160
F3.2
s(I1
I1
I172800
I171500
tp3161
F2.5
s(I0
I0
I172800
I218323
tp3162
F2.5
s(I13
I0
I0
I234
tp3163
F3.2
s(I4
I0
I0
I58
tp3164
F3.2
s(I1
I2
I432000
I435743
tp3165
F2.5
s(I27
I0
I0
I54081
tp3166
F2.5
s(I2
I0
I0
I1149
tp3167
F3.2
s(I1
I1
I172800
I402818
tp3168
F2.5
s(I23
I0
I0
I105192
tp3169
F2.5
s(I20
I0
I0
I5099
tp3170
F2.5
s(I1
I1
I172800
I171221
tp3171
F2.5
s(I7
I0
I0
I92812
tp3172
F2.5
s(I0
I0
I86400
I166020
tp3173
F2.5
s(I1
I1
I86400
I157354
tp3174
F2.5
s(I36
I0
I0
I139
tp3175
F1.3
s(I3
I0
I0
I227
tp3176
F3.2
s(I1
I2
I432000
I436911
tp3177
F2.5
s(I16
I0
I0
I72533
tp3178
F2.5
s(I0
I0
I172800
I92434
tp3179
F2.5
s(I7
I0
I0
I10156
tp3180
F2.5
s(I13
I0
I0
I54242
tp3181
F2.5
s(I25
I0
I0
I72659
tp3182
F2.5
s(I1
I3
I950400
I931011
tp3183
F2.5
s(I0
I0
I172800
I6226544
tp3184
F2.5
s(I1
I1
I86400
I88288
tp3185
F2.5
s(I13
I0
I0
I170378
tp3186
F2.5
s(I2
I0
I0
I72
tp3187
F3.2
s(I7
I0
I0
I66441
tp3188
F2.5
s(I4
I0
I0
I78602
tp3189
F2.5
s(I1
I0
I0
I3215
tp3190
F2.5
s(I0
I0
I604800
I2237517
tp3191
F2.5
s(I1
I3
I259200
I2688
tp3192
F2.5
s(I1
I1
I172800
I469140
tp3193
F2.5
s(I7
I0
I0
I72603
tp3194
F2.5
s(I1
I0
I0
I81
tp3195
F3.2
s(I2
I0
I0
I239235
tp3196
F2.5
s(I0
I0
I86400
I72499
tp3197
F2.5
s(I2
I1
I86400
I166435
tp3198
F2.5
s(I5
I0
I0
I263
tp3199
F3.2
s(I1
I0
I0
I168
tp3200
F3.2
s(I17
I0
I0
I5244
tp3201
F2.5
s(I1
I1
I172800
I207142
tp3202
F2.5
s(I3
I0
I0
I67
tp3203
F3.2
s(I1
I4
I172800
I156350
tp3204
F2.5
s(I6
I0
I0
I364
tp3205
F3.2
s(I4
I0
I0
I296
tp3206
F3.2
s(I7
I2
I604800
I596037
tp3207
F2.5
s(I25
I0
I0
I300
tp3208
F2.5
s(I0
I0
I172800
I139553
tp3209
F2.5
s(I1
I2
I432000
I450634
tp3210
F2.5
s(I1
I1
I172800
I180154
tp3211
F2.5
s(I0
I0
I950400
I945294
tp3212
F2.5
s(I2
I0
I0
I1172
tp3213
F3.2
s(I0
I0
I172800
I172058
tp3214
F3.2
s(I1
I0
I0
I49
tp3215
F3.2
s(I4
I0
I0
I250
tp3216
F3.2
s(I1
I3
I1209600
I1175841
tp3217
F2.5
s(I5
I0
I0
I167
tp3218
F3.2
s(I3
I0
I0
I1383
tp3219
F3.2
s(I2
I0
I0
I13424
tp3220
F2.5
s(I2
I2
I432000
I2411
tp3221
F2.5
s(I2
I0
I0
I54188
tp3222
F2.5
s(I19
I0
I0
I143
tp3223
F2.5
s(I3
I0
I0
I419
tp3224
F3.2
s(I2
I0
I0
I99
tp3225
F3.2
s(I1
I2
I432000
I419780
tp3226
F2.5
s(I2
I1
I172800
I145600
tp3227
F2.5
s(I8
I0
I0
I201
tp3228
F3.2
s(I7
I0
I0
I53
tp3229
F3.2
s(I14
I0
I0
I13125
tp3230
F2.5
s(I1
I3
I777600
I792513
tp3231
F2.5
s(I35
I0
I0
I2515
tp3232
F2.5
s(I1
I2
I432000
I423699
tp3233
F2.5
s(I2
I2
I518400
I524961
tp3234
F2.5
s(I21
I0
I0
I281
tp3235
F2.5
s(I4
I0
I0
I113
tp3236
F3.2
s(I2
I12
I172800
I147900
tp3237
F2.5
s(I1
I2
I518400
I494974
tp3238
F2.5
s(I1
I3
I1296000
I1127198
tp3239
F2.5
s(I1
I1
I86400
I120742
tp3240
F2.5
s(I2
I1
I86400
I78346
tp3241
F2.5
s(I1
I0
I0
I145
tp3242
F3.2
s(I1
I0
I0
I13668
tp3243
F2.5
s(I3
I0
I0
I40
tp3244
F3.2
s(I7
I1
I86400
I58687
tp3245
F2.5
s(I0
I0
I518400
I314576
tp3246
F2.5
s(I2
I1
I172800
I883806
tp3247
F2.5
s(I1
I3
I777600
I1082577
tp3248
F2.5
s(I1
I3
I1641600
I1893704
tp3249
F2.5
s(I2
I0
I0
I3
tp3250
F2.15
s(I0
I0
I86400
I25623
tp3251
F2.5
s(I1
I2
I518400
I525078
tp3252
F2.5
s(I0
I0
I86400
I75337
tp3253
F2.5
s(I2
I1
I172800
I145089
tp3254
F2.5
s(I0
I0
I86400
I78193
tp3255
F2.5
s(I1
I3
I259200
I2743
tp3256
F2.5
s(I1
I5
I172800
I132034
tp3257
F2.5
s(I9
I0
I0
I0
tp3258
F3.2
s(I17
I0
I0
I70
tp3259
F1.3
s(I0
I0
I172800
I171872
tp3260
F2.5
s(I1
I1
I172800
I191213
tp3261
F2.5
s(I12
I0
I0
I139
tp3262
F3.2
s(I1
I7
I259200
I152255
tp3263
F2.5
s(I0
I0
I777600
I728270
tp3264
F2.5
s(I1
I2
I432000
I615409
tp3265
F2.5
s(I1
I3
I1036800
I1041543
tp3266
F2.5
s(I1
I4
I172800
I156279
tp3267
F2.5
s(I5
I0
I0
I103
tp3268
F3.2
s(I1
I1
I86400
I64129
tp3269
F2.5
s(I1
I0
I0
I483
tp3270
F3.2
s(I1
I2
I518400
I15826
tp3271
F2.5
s(I4
I0
I0
I8
tp3272
F3.2
s(I2
I2
I432000
I435882
tp3273
F2.5
s(I2
I0
I0
I1135
tp3274
F3.2
s(I2
I2
I432000
I450208
tp3275
F2.5
s(I5
I0
I0
I2507
tp3276
F2.5
s(I1
I1
I172800
I148995
tp3277
F2.5
s(I1
I3
I86400
I47392
tp3278
F2.5
s(I2
I1
I86400
I80028
tp3279
F2.5
s(I3
I0
I0
I241
tp3280
F3.2
s(I2
I0
I0
I277
tp3281
F3.2
s(I39
I0
I0
I324
tp3282
F2.5
s(I5
I0
I0
I232
tp3283
F3.2
s(I0
I0
I518400
I516107
tp3284
F2.5
s(I3
I2
I518400
I476653
tp3285
F2.5
s(I5
I0
I0
I835
tp3286
F3.2
s(I2
I4
I259200
I142383
tp3287
F2.5
s(I2
I0
I0
I58
tp3288
F3.2
s(I1
I0
I0
I364
tp3289
F3.2
s(I6
I0
I0
I391
tp3290
F3.2
s(I1
I0
I0
I552
tp3291
F3.2
s(I0
I0
I172800
I106025
tp3292
F2.5
s(I1
I3
I777600
I781676
tp3293
F2.5
s(I1
I0
I0
I67
tp3294
F3.2
s(I3
I0
I0
I40203
tp3295
F2.5
s(I4
I0
I0
I168
tp3296
F3.2
s(I4
I0
I0
I53970
tp3297
F2.5
s(I1
I2
I432000
I446200
tp3298
F2.5
s(I1
I2
I518400
I495031
tp3299
F2.5
s(I1
I12
I172800
I172562
tp3300
F2.5
s(I0
I0
I172800
I218854
tp3301
F2.5
s(I2
I2
I432000
I641887
tp3302
F2.5
s(I2
I9
I86400
I41044
tp3303
F2.5
s(I2
I0
I0
I13506
tp3304
F2.5
s(I9
I0
I0
I400
tp3305
F3.2
s(I1
I3
I1296000
I1811059
tp3306
F2.5
s(I1
I5
I345600
I1286
tp3307
F2.5
s(I1
I2
I432000
I439003
tp3308
F2.5
s(I0
I0
I604800
I1213179
tp3309
F2.5
s(I1
I2
I432000
I450551
tp3310
F2.5
s(I1
I2
I518400
I44244
tp3311
F2.5
s(I3
I0
I0
I328
tp3312
F3.2
s(I3
I1
I86400
I115213
tp3313
F2.5
s(I1
I4
I259200
I198858
tp3314
F2.5
s(I2
I2
I604800
I968201
tp3315
F2.5
s(I14
I0
I0
I72453
tp3316
F2.5
s(I0
I0
I518400
I520557
tp3317
F2.5
s(I5
I0
I0
I172201
tp3318
F2.5
s(I18
I0
I0
I511
tp3319
F2.5
s(I1
I0
I0
I35
tp3320
F3.2
s(I23
I2
I604800
I609576
tp3321
F2.5
s(I3
I0
I0
I222
tp3322
F3.2
s(I0
I0
I432000
I858466
tp3323
F2.5
s(I1
I2
I518400
I493021
tp3324
F2.5
s(I0
I0
I86400
I166354
tp3325
F2.5
s(I3
I0
I0
I433
tp3326
F3.2
s(I2
I0
I0
I85
tp3327
F3.2
s(I2
I17
I345600
I229947
tp3328
F2.5
s(I1
I4
I518400
I489845
tp3329
F2.5
s(I3
I0
I0
I2646
tp3330
F2.5
s(I1
I7
I518400
I492957
tp3331
F2.5
s(I0
I0
I86400
I157152
tp3332
F2.5
s(I1
I7
I259200
I3713
tp3333
F2.5
s(I5
I0
I0
I515
tp3334
F3.2
s(I1
I4
I1468800
I1451936
tp3335
F2.5
s(I1
I0
I0
I12805
tp3336
F2.5
s(I5
I0
I0
I14157
tp3337
F2.5
s(I21
I0
I0
I299
tp3338
F2.5
s(I10
I0
I0
I1629
tp3339
F2.5
s(I0
I0
I1382400
I1760851
tp3340
F2.5
s(I14
I0
I0
I246
tp3341
F3.2
s(I6
I0
I0
I104
tp3342
F3.2
s(I0
I0
I345600
I3008
tp3343
F2.5
s(I8
I0
I0
I2502
tp3344
F2.5
s(I1
I0
I0
I131
tp3345
F3.2
s(I1
I2
I604800
I186639
tp3346
F2.5
s(I1
I3
I691200
I859713
tp3347
F2.5
s(I3
I2
I604800
I607223
tp3348
F2.5
s(I3
I0
I0
I240115
tp3349
F2.5
s(I1
I9
I950400
I1006741
tp3350
F2.5
s(I4
I0
I0
I177312
tp3351
F2.5
s(I1
I8
I259200
I265428
tp3352
F2.5
s(I0
I0
I604800
I584695
tp3353
F2.5
s(I1
I0
I0
I1145
tp3354
F3.2
s(I1
I1
I172800
I15542
tp3355
F2.5
s(I1
I0
I0
I922
tp3356
F3.2
s(I12
I0
I0
I96
tp3357
F3.2
s(I1
I1
I432000
I1129496
tp3358
F2.5
s(I0
I0
I172800
I67209
tp3359
F2.5
s(I5
I0
I0
I589230
tp3360
F2.5
s(I10
I0
I0
I1345
tp3361
F2.5
s(I9
I0
I0
I34
tp3362
F1.3
s(I1
I0
I0
I12
tp3363
F2.64
s(I3
I0
I0
I167
tp3364
F3.2
s(I2
I3
I1123200
I116
tp3365
F2.5
s(I1
I1
I172800
I135026
tp3366
F2.5
s(I0
I0
I86400
I90322
tp3367
F2.5
s(I10
I0
I0
I1110
tp3368
F2.5
s(I1
I2
I518400
I495906
tp3369
F2.5
s(I0
I0
I172800
I161821
tp3370
F2.5
s(I0
I0
I604800
I609858
tp3371
F2.5
s(I1
I2
I432000
I186592
tp3372
F2.5
s(I3
I0
I0
I139625
tp3373
F2.5
s(I2
I15
I259200
I229757
tp3374
F2.5
s(I5
I0
I0
I81
tp3375
F3.2
s(I1
I2
I518400
I524957
tp3376
F2.5
s(I5
I1
I172800
I184756
tp3377
F2.5
s(I1
I6
I345600
I198978
tp3378
F2.5
s(I1
I2
I518400
I496085
tp3379
F2.5
s(I0
I0
I604800
I582134
tp3380
F2.5
s(I0
I0
I172800
I172262
tp3381
F2.5
s(I1
I12
I864000
I931034
tp3382
F2.5
s(I1
I1
I86400
I47450
tp3383
F2.5
s(I1
I1
I172800
I71058
tp3384
F2.5
s(I12
I0
I0
I0
tp3385
F1.3
s(I4
I0
I0
I30
tp3386
F3.2
s(I1
I4
I1468800
I1812774
tp3387
F2.5
s(I6
I0
I0
I67
tp3388
F3.2
s(I18
I0
I0
I310
tp3389
F2.5
s(I0
I0
I172800
I175261
tp3390
F2.5
s(I3
I0
I0
I7
tp3391
F2.84
s(I1
I4
I172800
I156410
tp3392
F2.5
s(I5
I0
I0
I9512
tp3393
F2.5
s(I5
I0
I0
I218
tp3394
F3.2
s(I1
I2
I518400
I519896
tp3395
F2.5
s(I1
I5
I1036800
I1131445
tp3396
F2.5
s(I3
I0
I0
I2528
tp3397
F2.5
s(I2
I0
I0
I44
tp3398
F3.2
s(I2
I0
I0
I10078
tp3399
F2.5
s(I0
I0
I86400
I105190
tp3400
F2.5
s(I0
I0
I86400
I47927
tp3401
F2.5
s(I11
I0
I0
I1084
tp3402
F2.5
s(I0
I0
I86400
I78166
tp3403
F2.5
s(I1
I0
I0
I730
tp3404
F3.2
s(I1
I1
I86400
I102217
tp3405
F2.5
s(I1
I2
I432000
I393318
tp3406
F2.5
s(I1
I0
I0
I117
tp3407
F3.2
s(I1
I2
I518400
I199646
tp3408
F2.5
s(I2
I0
I0
I72902
tp3409
F2.5
s(I3
I0
I0
I140
tp3410
F3.2
s(I2
I0
I0
I9408
tp3411
F2.5
s(I2
I1
I172800
I4383
tp3412
F2.5
s(I1
I0
I0
I844
tp3413
F3.2
s(I2
I0
I0
I167
tp3414
F3.2
s(I1
I2
I432000
I436771
tp3415
F2.5
s(I1
I8
I86400
I40780
tp3416
F2.5
s(I5
I0
I0
I122
tp3417
F3.2
s(I16
I0
I0
I159
tp3418
F3.2
s(I6
I1
I86400
I75130
tp3419
F2.5
s(I8
I0
I0
I156
tp3420
F3.2
s(I3
I0
I0
I350
tp3421
F3.2
s(I3
I1
I172800
I3451466
tp3422
F2.5
s(I1
I0
I0
I510
tp3423
F3.2
s(I2
I0
I0
I113184
tp3424
F2.5
s(I1
I2
I518400
I736761
tp3425
F2.5
s(I4
I0
I0
I53
tp3426
F3.2
s(I1
I1
I86400
I61554
tp3427
F2.5
s(I1
I0
I0
I213
tp3428
F3.2
s(I0
I0
I172800
I177390
tp3429
F2.5
s(I3
I0
I0
I236
tp3430
F3.2
s(I2
I1
I172800
I166104
tp3431
F2.5
s(I0
I0
I86400
I125818
tp3432
F2.5
s(I2
I1
I172800
I168130
tp3433
F2.5
s(I5
I0
I0
I131
tp3434
F3.2
s(I1
I0
I0
I99723
tp3435
F2.5
s(I2
I1
I172800
I160177
tp3436
F2.5
s(I2
I5
I259200
I212591
tp3437
F2.5
s(I2
I0
I0
I67066
tp3438
F2.5
s(I7
I0
I0
I230
tp3439
F3.2
s(I1
I1
I86400
I115380
tp3440
F2.5
s(I19
I0
I0
I179
tp3441
F2.5
s(I2
I0
I0
I71
tp3442
F3.2
s(I1
I5
I86400
I35885
tp3443
F2.5
s(I1
I2
I518400
I479392
tp3444
F2.5
s(I5
I0
I0
I89929
tp3445
F2.5
s(I1
I6
I259200
I217
tp3446
F2.5
s(I2
I1
I86400
I113844
tp3447
F2.5
s(I1
I1
I86400
I37943
tp3448
F2.5
s(I1
I11
I2678400
I2756746
tp3449
F2.5
s(I3
I4
I1382400
I1548081
tp3450
F2.5
s(I1
I0
I0
I94
tp3451
F3.2
s(I0
I0
I432000
I446365
tp3452
F2.5
s(I12
I0
I0
I207
tp3453
F3.2
s(I2
I0
I0
I457
tp3454
F3.2
s(I1
I3
I1036800
I1326575
tp3455
F2.5
s(I0
I0
I172800
I161867
tp3456
F2.5
s(I2
I2
I518400
I528511
tp3457
F2.5
s(I0
I0
I604800
I630893
tp3458
F2.5
s(I1
I4
I172800
I156339
tp3459
F2.5
s(I1
I3
I1123200
I1556546
tp3460
F2.5
s(I14
I0
I0
I402
tp3461
F3.2
s(I7
I0
I0
I134
tp3462
F3.2
s(I0
I0
I86400
I53621
tp3463
F2.5
s(I2
I0
I0
I10
tp3464
F2.61
s(I25
I0
I0
I313
tp3465
F2.5
s(I1
I0
I0
I102511
tp3466
F2.5
s(I1
I1
I518400
I967069
tp3467
F2.5
s(I3
I0
I0
I350155
tp3468
F2.5
s(I1
I3
I172800
I53619
tp3469
F2.5
s(I1
I10
I86400
I14787
tp3470
F2.5
s(I1
I2
I604800
I646464
tp3471
F2.5
s(I0
I0
I432000
I435913
tp3472
F2.5
s(I1
I18
I691200
I697760
tp3473
F2.5
s(I1
I1
I86400
I4593
tp3474
F2.5
s(I10
I0
I0
I54223
tp3475
F2.5
s(I5
I0
I0
I413
tp3476
F3.2
s(I1
I2
I518400
I515084
tp3477
F2.5
s(I1
I0
I0
I62
tp3478
F3.2
s(I0
I0
I86400
I156972
tp3479
F2.5
s(I11
I0
I0
I191
tp3480
F3.2
s(I4
I0
I0
I245
tp3481
F3.2
s(I1
I7
I345600
I1297
tp3482
F2.5
s(I10
I0
I0
I555
tp3483
F3.2
s(I4
I1
I172800
I857283
tp3484
F2.5
s(I1
I17
I777600
I850114
tp3485
F2.5
s(I5
I0
I0
I77911
tp3486
F2.5
s(I10
I0
I0
I388
tp3487
F3.2
s(I2
I0
I0
I126
tp3488
F3.2
s(I1
I1
I172800
I204
tp3489
F2.5
s(I1
I4
I1728000
I1720363
tp3490
F2.5
s(I1
I2
I432000
I437924
tp3491
F2.5
s(I0
I0
I432000
I437630
tp3492
F2.5
s(I38
I0
I0
I72473
tp3493
F2.5
s(I5
I0
I0
I2584
tp3494
F2.5
s(I1
I2
I604800
I341942
tp3495
F2.5
s(I1
I6
I259200
I2915
tp3496
F2.5
s(I4
I0
I0
I108
tp3497
F3.2
s(I2
I0
I0
I480
tp3498
F3.2
s(I1
I3
I1209600
I1648620
tp3499
F2.5
s(I1
I5
I259200
I142299
tp3500
F2.5
s(I1
I3
I432000
I3073
tp3501
F2.5
s(I1
I4
I518400
I35
tp3502
F2.5
s(I1
I3
I432000
I480881
tp3503
F2.5
s(I1
I0
I0
I13681
tp3504
F2.5
s(I0
I0
I86400
I25387
tp3505
F2.5
s(I1
I2
I604800
I600687
tp3506
F2.5
s(I1
I2
I604800
I646469
tp3507
F2.5
s(I20
I0
I0
I5241
tp3508
F2.5
s(I1
I2
I432000
I436881
tp3509
F2.5
s(I9
I1
I172800
I167885
tp3510
F2.5
s(I5
I0
I0
I212
tp3511
F3.2
s(I1
I3
I259200
I53661
tp3512
F2.5
s(I1
I2
I518400
I2237227
tp3513
F2.5
s(I2
I2
I604800
I655177
tp3514
F2.5
s(I7
I0
I0
I175
tp3515
F3.2
s(I0
I0
I172800
I156972
tp3516
F2.5
s(I0
I0
I86400
I165686
tp3517
F2.5
s(I9
I0
I0
I217
tp3518
F3.2
s(I2
I1
I86400
I78217
tp3519
F2.5
s(I3
I0
I0
I268
tp3520
F3.2
s(I2
I0
I0
I30
tp3521
F3.2
s(I2
I2
I604800
I595899
tp3522
F2.5
s(I28
I0
I0
I169
tp3523
F2.5
s(I1
I2
I518400
I479385
tp3524
F2.5
s(I1
I1
I518400
I1212657
tp3525
F2.5
s(I0
I0
I432000
I437177
tp3526
F2.5
s(I1
I2
I604800
I604213
tp3527
F2.5
s(I1
I14
I864000
I1041566
tp3528
F2.5
s(I0
I0
I172800
I3521
tp3529
F2.5
s(I2
I0
I0
I72904
tp3530
F2.5
s(I1
I7
I172800
I3645
tp3531
F2.5
s(I4
I0
I0
I140
tp3532
F3.2
s(I2
I0
I0
I384
tp3533
F3.2
s(I2
I2
I604800
I596032
tp3534
F2.5
s(I3
I1
I86400
I112337
tp3535
F2.5
s(I1
I3
I604800
I186627
tp3536
F2.5
s(I3
I0
I0
I117
tp3537
F3.2
s(I2
I0
I0
I169
tp3538
F3.2
s(I1
I2
I518400
I91625
tp3539
F2.5
s(I1
I12
I1468800
I1450916
tp3540
F2.5
s(I1
I11
I345600
I375062
tp3541
F2.5
s(I0
I0
I86400
I75043
tp3542
F2.5
s(I1
I1
I86400
I75515
tp3543
F2.5
s(I1
I3
I172800
I51727
tp3544
F2.5
s(I0
I0
I604800
I604198
tp3545
F2.5
s(I8
I0
I0
I179
tp3546
F3.2
s(I2
I2
I518400
I479588
tp3547
F2.5
s(I13
I0
I0
I933
tp3548
F2.5
s(I0
I0
I86400
I91973
tp3549
F2.5
s(I3
I0
I0
I364
tp3550
F3.2
s(I1
I1
I172800
I110029
tp3551
F2.5
s(I1
I2
I432000
I362731
tp3552
F2.5
s(I1
I1
I518400
I478568
tp3553
F2.5
s(I1
I5
I259200
I198854
tp3554
F2.5
s(I2
I11
I172800
I95193
tp3555
F2.5
s(I2
I2
I432000
I424289
tp3556
F2.5
s(I1
I0
I0
I199
tp3557
F3.2
s(I1
I3
I1382400
I1373426
tp3558
F2.5
s(I1
I8
I259200
I198764
tp3559
F2.5
s(I0
I0
I172800
I167329
tp3560
F2.5
s(I3
I0
I0
I226
tp3561
F3.2
s(I0
I0
I172800
I177937
tp3562
F2.5
s(I0
I0
I172800
I238728
tp3563
F2.5
s(I10
I0
I0
I626
tp3564
F3.2
s(I1
I4
I259200
I265403
tp3565
F2.5
s(I1
I6
I518400
I7865
tp3566
F2.5
s(I3
I0
I0
I469
tp3567
F3.2
s(I2
I0
I0
I73
tp3568
F3.2
s(I1
I0
I0
I377
tp3569
F3.2
s(I8
I0
I0
I846
tp3570
F3.2
s(I13
I0
I0
I98
tp3571
F3.2
s(I2
I1
I86400
I35163
tp3572
F2.5
s(I0
I0
I604800
I399797
tp3573
F2.5
s(I3
I2
I432000
I1063200
tp3574
F2.5
s(I8
I0
I0
I275
tp3575
F3.2
s(I1
I0
I0
I565
tp3576
F3.2
s(I2
I0
I0
I77761
tp3577
F2.5
s(I1
I2
I604800
I97964
tp3578
F2.5
s(I2
I0
I0
I172065
tp3579
F2.5
s(I1
I2
I604800
I630399
tp3580
F2.5
s(I1
I2
I432000
I435667
tp3581
F2.5
s(I2
I0
I0
I443
tp3582
F3.2
s(I1
I5
I345600
I333541
tp3583
F2.5
s(I7
I0
I0
I262
tp3584
F3.2
s(I6
I0
I0
I4
tp3585
F3.2
s(I18
I0
I0
I371
tp3586
F2.5
s(I5
I1
I86400
I75146
tp3587
F2.5
s(I1
I0
I0
I13626
tp3588
F2.5
s(I3
I0
I0
I66
tp3589
F3.2
s(I15
I0
I0
I148
tp3590
F3.2
s(I1
I7
I86400
I3579
tp3591
F2.5
s(I1
I3
I1123200
I1105869
tp3592
F2.5
s(I16
I0
I0
I244
tp3593
F3.2
s(I1
I10
I86400
I3602
tp3594
F2.5
s(I12
I0
I0
I1160
tp3595
F2.5
s(I1
I2
I604800
I63872
tp3596
F2.5
s(I1
I2
I518400
I479446
tp3597
F2.5
s(I1
I0
I0
I661
tp3598
F3.2
s(I1
I1
I172800
I149540
tp3599
F2.5
s(I1
I0
I0
I48
tp3600
F3.2
s(I1
I2
I518400
I493669
tp3601
F2.5
s(I1
I8
I1382400
I1499357
tp3602
F2.5
s(I4
I0
I0
I251
tp3603
F3.2
s(I1
I1
I345600
I323926
tp3604
F2.5
s(I1
I1
I86400
I38542
tp3605
F2.5
s(I2
I0
I0
I13425
tp3606
F2.5
s(I2
I0
I0
I519
tp3607
F3.2
s(I1
I0
I0
I775
tp3608
F3.2
s(I1
I3
I604800
I617074
tp3609
F2.5
s(I1
I5
I777600
I767769
tp3610
F2.5
s(I2
I11
I259200
I91111
tp3611
F2.5
s(I2
I1
I172800
I259266
tp3612
F2.5
s(I4
I0
I0
I329
tp3613
F3.2
s(I1
I1
I259200
I271100
tp3614
F2.5
s(I2
I1
I86400
I25317
tp3615
F2.5
s(I0
I0
I172800
I204387
tp3616
F2.5
s(I9
I0
I0
I36596
tp3617
F2.5
s(I2
I1
I86400
I78771
tp3618
F2.5
s(I1
I2
I604800
I610238
tp3619
F2.5
s(I1
I5
I691200
I910425
tp3620
F2.5
s(I4
I0
I0
I114
tp3621
F3.2
s(I7
I0
I0
I146772
tp3622
F2.5
s(I1
I2
I518400
I494969
tp3623
F2.5
s(I1
I6
I345600
I7878
tp3624
F2.5
s(I7
I0
I0
I303
tp3625
F3.2
s(I29
I0
I0
I170403
tp3626
F2.5
s(I2
I1
I86400
I78345
tp3627
F2.5
s(I1
I0
I0
I144
tp3628
F3.2
s(I1
I9
I432000
I238752
tp3629
F2.5
s(I0
I0
I950400
I1497522
tp3630
F2.5
s(I1
I2
I604800
I968184
tp3631
F2.5
s(I1
I2
I432000
I3826
tp3632
F2.5
s(I5
I0
I0
I114042
tp3633
F2.5
s(I2
I0
I0
I0
tp3634
F1.91
s(I1
I1
I172800
I172137
tp3635
F3.2
s(I1
I7
I777600
I758684
tp3636
F2.5
s(I8
I0
I0
I901
tp3637
F3.2
s(I2
I2
I518400
I528497
tp3638
F2.5
s(I0
I0
I86400
I42570
tp3639
F2.5
s(I2
I0
I0
I9631
tp3640
F2.5
s(I2
I2
I432000
I435723
tp3641
F2.5
s(I2
I0
I0
I1228
tp3642
F3.2
s(I1
I8
I1814400
I1874262
tp3643
F2.5
s(I4
I0
I0
I89937
tp3644
F2.5
s(I23
I0
I0
I575
tp3645
F2.5
s(I0
I0
I518400
I490085
tp3646
F2.5
s(I1
I1
I172800
I191218
tp3647
F2.5
s(I1
I3
I777600
I773132
tp3648
F2.5
s(I6
I0
I0
I223
tp3649
F3.2
s(I13
I0
I0
I1222
tp3650
F2.5
s(I2
I0
I0
I54212
tp3651
F2.5
s(I1
I2
I432000
I2411
tp3652
F2.5
s(I2
I0
I0
I155
tp3653
F3.2
s(I0
I0
I172800
I167789
tp3654
F2.5
s(I0
I0
I86400
I78660
tp3655
F2.5
s(I1
I1
I86400
I75397
tp3656
F2.5
s(I31
I0
I0
I139
tp3657
F2.5
s(I7
I0
I0
I93
tp3658
F3.2
s(I1
I3
I1123200
I1123085
tp3659
F2.5
s(I7
I1
I172800
I160374
tp3660
F2.5
s(I17
I0
I0
I206
tp3661
F2.5
s(I0
I0
I86400
I139509
tp3662
F2.5
s(I1
I2
I518400
I186625
tp3663
F2.5
s(I8
I0
I0
I36428
tp3664
F2.5
s(I11
I0
I0
I275
tp3665
F3.2
s(I3
I0
I0
I793
tp3666
F3.2
s(I1
I4
I86400
I40858
tp3667
F2.5
s(I0
I0
I172800
I170756
tp3668
F2.5
s(I4
I0
I0
I54290
tp3669
F2.5
s(I7
I0
I0
I372
tp3670
F3.2
s(I6
I0
I0
I86
tp3671
F3.2
s(I5
I0
I0
I464
tp3672
F3.2
s(I2
I1
I86400
I111681
tp3673
F2.5
s(I9
I0
I0
I127
tp3674
F3.2
s(I1
I0
I0
I249
tp3675
F3.2
s(I1
I1
I172800
I148992
tp3676
F2.5
s(I2
I2
I518400
I524898
tp3677
F2.5
s(I1
I2
I604800
I646685
tp3678
F2.5
s(I1
I2
I518400
I524807
tp3679
F2.5
s(I1
I0
I0
I13832
tp3680
F2.5
s(I1
I0
I0
I3497
tp3681
F2.5
s(I7
I0
I0
I194
tp3682
F3.2
s(I0
I0
I432000
I450228
tp3683
F2.5
s(I1
I2
I518400
I630878
tp3684
F2.5
s(I0
I0
I432000
I408871
tp3685
F2.5
s(I1
I0
I0
I12575
tp3686
F2.5
s(I5
I0
I0
I241
tp3687
F3.2
s(I2
I1
I172800
I171922
tp3688
F2.5
s(I1
I5
I86400
I44153
tp3689
F2.5
s(I1
I5
I345600
I2987
tp3690
F2.5
s(I3
I2
I432000
I445973
tp3691
F2.5
s(I1
I1
I86400
I37233
tp3692
F2.5
s(I11
I0
I0
I243
tp3693
F3.2
s(I4
I0
I0
I169
tp3694
F3.2
s(I1
I13
I1209600
I1376912
tp3695
F2.5
s(I15
I0
I0
I286
tp3696
F3.2
s(I1
I5
I345600
I3793
tp3697
F2.5
s(I1
I13
I259200
I173215
tp3698
F2.5
s(I2
I0
I0
I178
tp3699
F3.2
s(I3
I0
I0
I40088
tp3700
F2.5
s(I1
I2
I432000
I858388
tp3701
F2.5
s(I1
I2
I432000
I439002
tp3702
F2.5
s(I24
I1
I172800
I157350
tp3703
F2.5
s(I0
I0
I864000
I849210
tp3704
F2.5
s(I2
I16
I172800
I365814
tp3705
F2.5
s(I1
I1
I172800
I170875
tp3706
F2.5
s(I1
I8
I86400
I41044
tp3707
F2.5
s(I1
I2
I518400
I518653
tp3708
F2.5
s(I2
I1
I86400
I25502
tp3709
F2.5
s(I5
I0
I0
I505
tp3710
F3.2
s(I1
I1
I86400
I294538
tp3711
F2.5
s(I1
I2
I518400
I495242
tp3712
F2.5
s(I1
I0
I0
I34
tp3713
F3.2
s(I0
I0
I604800
I600657
tp3714
F2.5
s(I1
I3
I950400
I1242210
tp3715
F2.5
s(I5
I1
I86400
I78744
tp3716
F2.5
s(I2
I2
I518400
I495953
tp3717
F2.5
s(I1
I4
I1728000
I1726855
tp3718
F2.5
s(I2
I0
I0
I333
tp3719
F3.2
s(I2
I2
I432000
I399718
tp3720
F2.5
s(I6
I0
I0
I150
tp3721
F3.2
s(I5
I0
I0
I144
tp3722
F3.2
s(I1
I2
I518400
I493020
tp3723
F2.5
s(I1
I6
I172800
I1292
tp3724
F2.5
s(I1
I2
I518400
I495892
tp3725
F2.5
s(I1
I0
I0
I825
tp3726
F3.2
s(I7
I0
I0
I235
tp3727
F3.2
s(I1
I3
I1468800
I1893673
tp3728
F2.5
s(I2
I0
I0
I82
tp3729
F3.2
s(I1
I6
I432000
I7872
tp3730
F2.5
s(I4
I0
I0
I351
tp3731
F3.2
s(I4
I0
I0
I351578
tp3732
F2.5
s(I3
I0
I0
I72500
tp3733
F2.5
s(I1
I3
I1036800
I1556523
tp3734
F2.5
s(I2
I1
I86400
I165024
tp3735
F2.5
s(I1
I0
I0
I427
tp3736
F3.2
s(I1
I2
I604800
I568638
tp3737
F2.5
s(I9
I0
I0
I146
tp3738
F3.2
s(I4
I0
I0
I64
tp3739
F3.2
s(I1
I11
I259200
I3730
tp3740
F2.5
s(I5
I0
I0
I209
tp3741
F3.2
s(I5
I0
I0
I281
tp3742
F3.2
s(I8
I0
I0
I2503
tp3743
F2.5
s(I1
I2
I432000
I434176
tp3744
F2.5
s(I2
I0
I0
I13562
tp3745
F2.5
s(I1
I0
I0
I130
tp3746
F3.2
s(I21
I0
I0
I4953
tp3747
F2.5
s(I5
I0
I0
I66556
tp3748
F2.5
s(I3
I0
I0
I240114
tp3749
F2.5
s(I2
I0
I0
I237
tp3750
F3.2
s(I3
I0
I0
I13203
tp3751
F2.5
s(I2
I2
I518400
I495343
tp3752
F2.5
s(I1
I1
I86400
I96714
tp3753
F2.5
s(I0
I0
I432000
I408821
tp3754
F2.5
s(I5
I0
I0
I48
tp3755
F3.2
s(I0
I0
I86400
I80520
tp3756
F2.5
s(I1
I0
I0
I41130
tp3757
F2.5
s(I16
I0
I0
I201
tp3758
F3.2
s(I1
I0
I0
I921
tp3759
F3.2
s(I3
I0
I0
I272
tp3760
F3.2
s(I2
I0
I0
I1010
tp3761
F3.2
s(I1
I0
I0
I308
tp3762
F3.2
s(I24
I2
I518400
I495845
tp3763
F2.5
s(I0
I0
I172800
I150806
tp3764
F2.5
s(I1
I1
I86400
I133844
tp3765
F2.5
s(I13
I0
I0
I102577
tp3766
F2.5
s(I32
I0
I0
I363
tp3767
F2.5
s(I1
I0
I0
I11
tp3768
F2.47
s(I34
I0
I0
I588
tp3769
F2.5
s(I9
I0
I0
I36492
tp3770
F2.5
s(I2
I0
I0
I356
tp3771
F3.2
s(I4
I1
I86400
I115262
tp3772
F2.5
s(I5
I0
I0
I185
tp3773
F3.2
s(I1
I2
I604800
I604575
tp3774
F2.5
s(I1
I2
I432000
I186595
tp3775
F2.5
s(I2
I0
I0
I141
tp3776
F3.2
s(I1
I5
I172800
I44126
tp3777
F2.5
s(I5
I0
I0
I80
tp3778
F3.2
s(I27
I0
I0
I170201
tp3779
F2.5
s(I1
I0
I0
I633
tp3780
F3.2
s(I7
I0
I0
I43
tp3781
F3.2
s(I3
I0
I0
I72477
tp3782
F2.5
s(I13
I1
I172800
I284007
tp3783
F2.5
s(I2
I2
I518400
I6219152
tp3784
F2.5
s(I3
I0
I0
I368
tp3785
F3.2
s(I0
I0
I604800
I603526
tp3786
F2.5
s(I16
I2
I432000
I420113
tp3787
F2.5
s(I1
I3
I1036800
I1042649
tp3788
F2.5
s(I11
I0
I0
I257
tp3789
F3.2
s(I3
I2
I432000
I510946
tp3790
F2.5
s(I1
I1
I86400
I71018
tp3791
F2.5
s(I6
I0
I0
I64
tp3792
F3.2
s(I1
I2
I518400
I505748
tp3793
F2.5
s(I1
I2
I518400
I496129
tp3794
F2.5
s(I3
I0
I0
I6
tp3795
F2.87
s(I0
I0
I86400
I105583
tp3796
F2.5
s(I1
I2
I518400
I512995
tp3797
F2.5
s(I1
I3
I691200
I919099
tp3798
F2.5
s(I1
I0
I0
I351584
tp3799
F2.5
s(I3
I0
I0
I505
tp3800
F3.2
s(I2
I0
I0
I45
tp3801
F3.2
s(I1
I3
I691200
I722303
tp3802
F2.5
s(I4
I1
I172800
I323849
tp3803
F2.5
s(I6
I0
I0
I438
tp3804
F3.2
s(I4
I0
I0
I406
tp3805
F3.2
s(I1
I3
I259200
I142292
tp3806
F2.5
s(I1
I10
I604800
I629768
tp3807
F2.5
s(I8
I0
I0
I271
tp3808
F3.2
s(I1
I6
I1382400
I1467341
tp3809
F2.5
s(I0
I0
I172800
I269880
tp3810
F2.5
s(I4
I0
I0
I105337
tp3811
F2.5
s(I1
I0
I0
I116
tp3812
F3.2
s(I2
I0
I0
I10255
tp3813
F2.5
s(I18
I0
I0
I26398
tp3814
F2.5
s(I2
I0
I0
I77833
tp3815
F2.5
s(I4
I0
I0
I191
tp3816
F3.2
s(I3
I0
I0
I143
tp3817
F3.2
s(I1
I2
I432000
I408833
tp3818
F2.5
s(I3
I2
I604800
I655177
tp3819
F2.5
s(I2
I0
I0
I79029
tp3820
F2.5
s(I3
I0
I0
I102
tp3821
F3.2
s(I2
I0
I0
I164
tp3822
F3.2
s(I1
I5
I345600
I1289
tp3823
F2.5
s(I6
I0
I0
I265
tp3824
F3.2
s(I5
I0
I0
I121
tp3825
F3.2
s(I1
I2
I604800
I609078
tp3826
F2.5
s(I8
I0
I0
I134
tp3827
F3.2
s(I0
I0
I432000
I330118
tp3828
F2.5
s(I1
I14
I172800
I89778
tp3829
F2.5
s(I4
I0
I0
I54
tp3830
F3.2
s(I10
I2
I604800
I941866
tp3831
F2.5
s(I3
I0
I0
I3477
tp3832
F2.5
s(I15
I0
I0
I133
tp3833
F3.2
s(I2
I2
I518400
I496139
tp3834
F2.5
s(I0
I0
I172800
I167316
tp3835
F2.5
s(I3
I0
I0
I239
tp3836
F3.2
s(I2
I0
I0
I319
tp3837
F3.2
s(I0
I0
I86400
I125819
tp3838
F2.5
s(I1
I3
I345600
I221
tp3839
F2.5
s(I1
I5
I259200
I142345
tp3840
F2.5
s(I9
I0
I0
I257
tp3841
F3.2
s(I1
I5
I172800
I1278
tp3842
F2.5
s(I2
I0
I0
I68
tp3843
F3.2
s(I1
I0
I0
I326
tp3844
F3.2
s(I0
I0
I172800
I145021
tp3845
F2.5
s(I1
I5
I86400
I35882
tp3846
F2.5
s(I6
I0
I0
I489
tp3847
F3.2
s(I7
I1
I172800
I270057
tp3848
F2.5
s(I0
I0
I604800
I582078
tp3849
F2.5
s(I13
I0
I0
I66554
tp3850
F2.5
s(I1
I9
I86400
I2548
tp3851
F2.5
s(I1
I3
I1036800
I1556537
tp3852
F2.5
s(I1
I0
I0
I93
tp3853
F3.2
s(I1
I1
I86400
I210859
tp3854
F2.5
s(I4
I0
I0
I86
tp3855
F3.2
s(I0
I0
I86400
I78231
tp3856
F2.5
s(I6
I0
I0
I27
tp3857
F3.2
s(I5
I2
I518400
I495821
tp3858
F2.5
s(I1
I2
I604800
I646466
tp3859
F2.5
s(I2
I1
I172800
I153475
tp3860
F2.5
s(I5
I0
I0
I34
tp3861
F3.2
s(I1
I3
I86400
I35819
tp3862
F2.5
s(I1
I1
I432000
I361493
tp3863
F2.5
s(I0
I0
I86400
I165856
tp3864
F2.5
s(I3
I0
I0
I294
tp3865
F3.2
s(I1
I0
I0
I294
tp3866
F3.2
s(I12
I0
I0
I1552
tp3867
F2.5
s(I1
I2
I518400
I479427
tp3868
F2.5
s(I3
I0
I0
I989
tp3869
F3.2
s(I0
I0
I172800
I218947
tp3870
F2.5
s(I0
I0
I432000
I437640
tp3871
F2.5
s(I1
I2
I432000
I510970
tp3872
F2.5
s(I3
I0
I0
I102560
tp3873
F2.5
s(I4
I0
I0
I246
tp3874
F3.2
s(I3
I0
I0
I180
tp3875
F3.2
s(I1
I7
I345600
I1298
tp3876
F2.5
s(I13
I0
I0
I72713
tp3877
F2.5
s(I1
I10
I432000
I442544
tp3878
F2.5
s(I5
I0
I0
I65
tp3879
F3.2
s(I3
I0
I0
I79045
tp3880
F2.5
s(I22
I0
I0
I592
tp3881
F2.5
s(I2
I0
I0
I589524
tp3882
F2.5
s(I2
I0
I0
I127
tp3883
F3.2
s(I1
I2
I518400
I15840
tp3884
F2.5
s(I1
I13
I604800
I24796
tp3885
F2.5
s(I40
I0
I0
I165
tp3886
F2.5
s(I1
I4
I345600
I44
tp3887
F2.5
s(I1
I7
I604800
I629761
tp3888
F2.5
s(I4
I0
I0
I109
tp3889
F3.2
s(I1
I11
I1728000
I1853072
tp3890
F2.5
s(I1
I2
I518400
I505754
tp3891
F2.5
s(I9
I0
I0
I83
tp3892
F3.2
s(I2
I0
I0
I685
tp3893
F3.2
s(I1
I0
I0
I157
tp3894
F3.2
s(I10
I0
I0
I72621
tp3895
F2.5
s(I27
I0
I0
I74
tp3896
F1.3
s(I1
I8
I259200
I3731
tp3897
F2.5
s(I3
I0
I0
I20
tp3898
F3.2
s(I2
I0
I0
I246
tp3899
F3.2
s(I1
I2
I518400
I515051
tp3900
F2.5
s(I5
I0
I0
I203
tp3901
F3.2
s(I2
I0
I0
I13356
tp3902
F2.5
s(I2
I1
I172800
I883794
tp3903
F2.5
s(I1
I2
I518400
I495955
tp3904
F2.5
s(I19
I0
I0
I251
tp3905
F2.5
s(I2
I0
I0
I31
tp3906
F3.2
s(I1
I0
I0
I271
tp3907
F3.2
s(I0
I0
I604800
I607231
tp3908
F2.5
s(I1
I2
I432000
I436775
tp3909
F2.5
s(I2
I2
I432000
I435734
tp3910
F2.5
s(I24
I0
I0
I305
tp3911
F2.5
s(I1
I0
I0
I715
tp3912
F3.2
s(I14
I1
I86400
I102092
tp3913
F2.5
s(I1
I3
I1036800
I1019588
tp3914
F2.5
s(I1
I2
I604800
I97942
tp3915
F2.5
s(I9
I0
I0
I204
tp3916
F3.2
s(I1
I0
I0
I102
tp3917
F3.2
s(I2
I0
I0
I114072
tp3918
F2.5
s(I1
I1
I345600
I306327
tp3919
F2.5
s(I0
I0
I1641600
I3458398
tp3920
F2.5
s(I6
I0
I0
I210
tp3921
F3.2
s(I7
I2
I518400
I495786
tp3922
F2.5
s(I1
I3
I604800
I223
tp3923
F2.5
s(I0
I0
I172800
I3451373
tp3924
F2.5
s(I2
I1
I86400
I75209
tp3925
F2.5
s(I9
I0
I0
I105525
tp3926
F2.5
s(I9
I0
I0
I36446
tp3927
F2.5
s(I1
I1
I172800
I172503
tp3928
F2.5
s(I8
I0
I0
I751
tp3929
F3.2
s(I1
I3
I604800
I632389
tp3930
F2.5
s(I1
I1
I172800
I444992
tp3931
F2.5
s(I4
I2
I432000
I420110
tp3932
F2.5
s(I5
I0
I0
I34925
tp3933
F2.5
s(I5
I1
I172800
I263829
tp3934
F2.5
s(I4
I2
I432000
I408833
tp3935
F2.5
s(I5
I0
I0
I170481
tp3936
F2.5
s(I1
I3
I950400
I1497537
tp3937
F2.5
s(I1
I2
I604800
I15849
tp3938
F2.5
s(I13
I0
I0
I232
tp3939
F3.2
s(I1
I4
I604800
I604116
tp3940
F2.5
s(I1
I1
I172800
I402816
tp3941
F2.5
s(I1
I4
I1123200
I1381985
tp3942
F2.5
s(I1
I0
I0
I198
tp3943
F3.2
s(I1
I3
I604800
I698379
tp3944
F2.5
s(I1
I6
I864000
I850105
tp3945
F2.5
s(I3
I0
I0
I240237
tp3946
F2.5
s(I2
I2
I604800
I617513
tp3947
F2.5
s(I18
I0
I0
I162
tp3948
F2.5
s(I2
I8
I345600
I3790
tp3949
F2.5
s(I1
I0
I0
I13265
tp3950
F2.5
s(I3
I0
I0
I78670
tp3951
F2.5
s(I0
I0
I432000
I424215
tp3952
F2.5
s(I13
I0
I0
I97
tp3953
F3.2
s(I1
I1
I172800
I184690
tp3954
F2.5
s(I4
I0
I0
I435
tp3955
F3.2
s(I1
I10
I259200
I82471
tp3956
F2.5
s(I8
I0
I0
I276
tp3957
F3.2
s(I14
I0
I0
I314
tp3958
F3.2
s(I5
I0
I0
I40216
tp3959
F2.5
s(I1
I0
I0
I13447
tp3960
F2.5
s(I1
I2
I604800
I630398
tp3961
F2.5
s(I4
I0
I0
I105318
tp3962
F2.5
s(I1
I0
I0
I79
tp3963
F3.2
s(I1
I2
I432000
I435666
tp3964
F2.5
s(I9
I0
I0
I79084
tp3965
F2.5
s(I12
I0
I0
I222
tp3966
F3.2
s(I1
I11
I86400
I77901
tp3967
F2.5
s(I15
I0
I0
I275
tp3968
F3.2
s(I1
I0
I0
I166
tp3969
F3.2
s(I1
I1
I172800
I207140
tp3970
F2.5
s(I19
I0
I0
I41
tp3971
F1.3
s(I1
I8
I1555200
I1720384
tp3972
F2.5
s(I0
I0
I432000
I2775117
tp3973
F2.5
s(I2
I0
I0
I77821
tp3974
F2.5
s(I5
I0
I0
I28
tp3975
F3.2
s(I1
I0
I0
I1052
tp3976
F3.2
s(I2
I1
I172800
I157625
tp3977
F2.5
s(I1
I7
I518400
I504739
tp3978
F2.5
s(I4
I0
I0
I161
tp3979
F3.2
s(I14
I0
I0
I13083
tp3980
F2.5
s(I1
I1
I172800
I169898
tp3981
F2.5
s(I13
I0
I0
I1310
tp3982
F2.5
s(I1
I0
I0
I472
tp3983
F3.2
s(I1
I1
I432000
I432353
tp3984
F2.5
s(I2
I0
I0
I217468
tp3985
F2.5
s(I1
I2
I432000
I466472
tp3986
F2.5
s(I6
I0
I0
I114341
tp3987
F2.5
s(I2
I1
I172800
I884082
tp3988
F2.5
s(I16
I0
I0
I355
tp3989
F2.5
s(I1
I0
I0
I47
tp3990
F3.2
s(I1
I4
I259200
I212589
tp3991
F2.5
s(I1
I1
I86400
I57294
tp3992
F2.5
s(I3
I0
I0
I202
tp3993
F3.2
s(I1
I2
I518400
I495043
tp3994
F2.5
s(I1
I1
I86400
I120
tp3995
F2.5
s(I2
I1
I86400
I98226
tp3996
F2.5
s(I2
I0
I0
I13438
tp3997
F2.5
s(I1
I2
I604800
I688686
tp3998
F2.5
s(I1
I5
I259200
I265411
tp3999
F2.5
s(I2
I0
I0
I97
tp4000
F3.2
s(I13
I0
I0
I58
tp4001
F1.3
s(I0
I0
I172800
I247231
tp4002
F2.5
s(I1
I1
I86400
I101047
tp4003
F2.5
s(I1
I2
I518400
I495164
tp4004
F2.5
s(I2
I1
I86400
I153109
tp4005
F2.5
s(I12
I0
I0
I229
tp4006
F3.2
s(I1
I2
I432000
I15813
tp4007
F2.5
s(I1
I1
I86400
I95831
tp4008
F2.5
s(I1
I2
I518400
I1350
tp4009
F2.5
s(I1
I2
I518400
I97988
tp4010
F2.5
s(I3
I0
I0
I42
tp4011
F3.2
s(I2
I0
I0
I248
tp4012
F3.2
s(I0
I0
I518400
I495833
tp4013
F2.5
s(I1
I2
I432000
I394248
tp4014
F2.5
s(I1
I2
I432000
I199601
tp4015
F2.5
s(I7
I0
I0
I601
tp4016
F3.2
s(I4
I0
I0
I13881
tp4017
F2.5
s(I1
I1
I86400
I115389
tp4018
F2.5
s(I5
I0
I0
I664
tp4019
F3.2
s(I1
I6
I518400
I7873
tp4020
F2.5
s(I0
I0
I172800
I139530
tp4021
F2.5
s(I31
I0
I0
I413
tp4022
F2.5
s(I1
I0
I0
I257
tp4023
F3.2
s(I1
I1
I172800
I172142
tp4024
F3.2
s(I0
I0
I345600
I0
tp4025
F2.5
s(I0
I0
I172800
I145489
tp4026
F2.5
s(I2
I1
I86400
I77383
tp4027
F2.5
s(I1
I0
I0
I765
tp4028
F3.2
s(I1
I1
I172800
I164867
tp4029
F2.5
s(I1
I3
I777600
I1166952
tp4030
F2.5
s(I0
I0
I518400
I490086
tp4031
F2.5
s(I30
I0
I0
I72551
tp4032
F2.5
s(I3
I0
I0
I10205
tp4033
F2.5
s(I4
I0
I0
I147
tp4034
F3.2
s(I3
I0
I0
I147
tp4035
F3.2
s(I2
I21
I777600
I943719
tp4036
F2.5
s(I6
I0
I0
I78503
tp4037
F2.5
s(I5
I0
I0
I172157
tp4038
F2.5
s(I1
I1
I86400
I78409
tp4039
F2.5
s(I1
I2
I432000
I2410
tp4040
F2.5
s(I1
I2
I604800
I600476
tp4041
F2.5
s(I1
I2
I604800
I199842
tp4042
F2.5
s(I2
I0
I0
I152
tp4043
F3.2
s(I0
I0
I172800
I177849
tp4044
F2.5
s(I1
I5
I172800
I44141
tp4045
F2.5
s(I1
I2
I518400
I858619
tp4046
F2.5
s(I1
I4
I691200
I684415
tp4047
F2.5
s(I7
I0
I0
I193
tp4048
F3.2
s(I1
I5
I172800
I116547
tp4049
F2.5
s(I1
I4
I345600
I55
tp4050
F2.5
s(I7
I0
I0
I92
tp4051
F3.2
s(I1
I1
I86400
I69597
tp4052
F2.5
s(I2
I4
I691200
I689119
tp4053
F2.5
s(I1
I9
I86400
I2804
tp4054
F2.5
s(I3
I1
I172800
I270145
tp4055
F2.5
s(I2
I2
I432000
I435876
tp4056
F2.5
s(I4
I0
I0
I76
tp4057
F3.2
s(I1
I5
I259200
I142309
tp4058
F2.5
s(I15
I0
I0
I244
tp4059
F3.2
s(I0
I0
I172800
I161928
tp4060
F2.5
s(I1
I5
I432000
I467312
tp4061
F2.5
s(I2
I1
I172800
I105891
tp4062
F2.5
s(I4
I0
I0
I217509
tp4063
F2.5
s(I3
I0
I0
I36687
tp4064
F2.5
s(I33
I0
I0
I171962
tp4065
F2.5
s(I0
I0
I1036800
I1379893
tp4066
F2.5
s(I2
I10
I1209600
I1648614
tp4067
F2.5
s(I2
I0
I0
I56
tp4068
F3.2
s(I0
I0
I518400
I6219426
tp4069
F2.5
s(I1
I11
I172800
I95220
tp4070
F2.5
s(I1
I4
I345600
I44195
tp4071
F2.5
s(I6
I0
I0
I389
tp4072
F3.2
s(I2
I2
I518400
I559127
tp4073
F2.5
s(I6
I0
I0
I82731
tp4074
F2.5
s(I3
I0
I0
I1084
tp4075
F3.2
s(I2
I1
I86400
I78202
tp4076
F2.5
s(I1
I0
I0
I65
tp4077
F3.2
s(I1
I11
I1123200
I1094938
tp4078
F2.5
s(I4
I0
I0
I170
tp4079
F3.2
s(I2
I0
I0
I426
tp4080
F3.2
s(I0
I0
I518400
I525070
tp4081
F2.5
s(I7
I0
I0
I279
tp4082
F3.2
s(I3
I1
I86400
I128149
tp4083
F2.5
s(I1
I0
I0
I856
tp4084
F3.2
s(I19
I0
I0
I95
tp4085
F1.39
s(I2
I0
I0
I179
tp4086
F3.2
s(I1
I6
I172800
I104074
tp4087
F2.5
s(I1
I3
I950400
I914418
tp4088
F2.5
s(I1
I2
I604800
I100312
tp4089
F2.5
s(I2
I1
I86400
I87512
tp4090
F2.5
s(I1
I2
I518400
I477242
tp4091
F2.5
s(I8
I0
I0
I153
tp4092
F3.2
s(I1
I3
I1296000
I1378527
tp4093
F2.5
s(I1
I2
I518400
I44246
tp4094
F2.5
s(I1
I1
I172800
I884355
tp4095
F2.5
s(I1
I7
I691200
I688388
tp4096
F3.2
s(I2
I0
I0
I13540
tp4097
F2.5
s(I4
I1
I172800
I324058
tp4098
F2.5
s(I12
I0
I0
I91
tp4099
F3.2
s(I3
I1
I86400
I78538
tp4100
F2.5
s(I2
I0
I0
I9559
tp4101
F2.5
s(I2
I3
I86400
I47393
tp4102
F2.5
s(I1
I1
I86400
I37845
tp4103
F2.5
s(I1
I0
I0
I33
tp4104
F3.2
s(I20
I0
I0
I105464
tp4105
F2.5
s(I11
I0
I0
I34900
tp4106
F2.5
s(I1
I2
I518400
I587064
tp4107
F2.5
s(I2
I0
I0
I40050
tp4108
F2.5
s(I3
I0
I0
I217446
tp4109
F2.5
s(I4
I0
I0
I202
tp4110
F3.2
s(I3
I0
I0
I216
tp4111
F3.2
s(I2
I0
I0
I330
tp4112
F3.2
s(I1
I1
I86400
I38553
tp4113
F2.5
s(I1
I2
I604800
I646709
tp4114
F2.5
s(I1
I1
I86400
I77621
tp4115
F2.5
s(I1
I1
I432000
I438766
tp4116
F2.5
s(I4
I0
I0
I695
tp4117
F3.2
s(I22
I0
I0
I2602
tp4118
F2.5
s(I8
I0
I0
I16
tp4119
F1.3
s(I2
I0
I0
I83
tp4120
F3.2
s(I2
I5
I259200
I142346
tp4121
F2.5
s(I4
I0
I0
I344
tp4122
F3.2
s(I1
I4
I259200
I44213
tp4123
F2.5
s(I8
I0
I0
I249
tp4124
F3.2
s(I1
I2
I432000
I601787
tp4125
F2.5
s(I1
I10
I777600
I864591
tp4126
F2.5
s(I1
I0
I0
I995
tp4127
F3.2
s(I2
I0
I0
I888
tp4128
F3.2
s(I1
I2
I432000
I398928
tp4129
F2.5
s(I0
I0
I172800
I174896
tp4130
F2.5
s(I19
I0
I0
I301
tp4131
F2.5
s(I4
I0
I0
I65
tp4132
F3.2
s(I2
I0
I0
I453
tp4133
F3.2
s(I6
I0
I0
I110
tp4134
F3.2
s(I1
I4
I1555200
I1451993
tp4135
F2.5
s(I2
I1
I172800
I180066
tp4136
F2.5
s(I9
I2
I604800
I610002
tp4137
F2.5
s(I1
I0
I0
I41042
tp4138
F2.5
s(I6
I0
I0
I114323
tp4139
F2.5
s(I1
I2
I432000
I445919
tp4140
F2.5
s(I2
I0
I0
I88953
tp4141
F2.5
s(I3
I0
I0
I56
tp4142
F3.2
s(I1
I8
I172800
I156414
tp4143
F2.5
s(I1
I3
I864000
I852633
tp4144
F2.5
s(I4
I0
I0
I727
tp4145
F3.2
s(I16
I0
I0
I202
tp4146
F3.2
s(I6
I0
I0
I9643
tp4147
F2.5
s(I2
I0
I0
I1430
tp4148
F3.2
s(I1
I0
I0
I920
tp4149
F3.2
s(I1
I10
I1036800
I1022401
tp4150
F2.5
s(I8
I0
I0
I34934
tp4151
F2.5
s(I1
I9
I172800
I3638
tp4152
F2.5
s(I1
I2
I518400
I186614
tp4153
F2.5
s(I1
I5
I950400
I975343
tp4154
F2.5
s(I1
I6
I259200
I7870
tp4155
F2.5
s(I0
I0
I604800
I613390
tp4156
F2.5
s(I1
I11
I604800
I627266
tp4157
F2.5
s(I1
I1
I432000
I432014
tp4158
F2.5
s(I1
I8
I86400
I10358
tp4159
F2.5
s(I1
I0
I0
I10
tp4160
F2.31
s(I9
I0
I0
I36518
tp4161
F2.5
s(I3
I0
I0
I161
tp4162
F3.2
s(I1
I4
I259200
I209202
tp4163
F2.5
s(I1
I1
I86400
I93
tp4164
F2.5
s(I13
I0
I0
I1239
tp4165
F2.5
s(I1
I10
I345600
I238741
tp4166
F2.5
s(I3
I0
I0
I408
tp4167
F3.2
s(I2
I0
I0
I138
tp4168
F3.2
s(I1
I5
I1209600
I1281225
tp4169
F2.5
s(I3
I0
I0
I2617
tp4170
F2.5
s(I3
I0
I0
I72033
tp4171
F2.5
s(I0
I0
I86400
I80745
tp4172
F2.5
s(I1
I2
I604800
I601516
tp4173
F2.5
s(I14
I0
I0
I13148
tp4174
F2.5
s(I2
I1
I172800
I161768
tp4175
F2.5
s(I1
I7
I259200
I294139
tp4176
F2.5
s(I4
I0
I0
I24
tp4177
F3.2
s(I0
I0
I172800
I67179
tp4178
F2.5
s(I1
I2
I518400
I648274
tp4179
F2.5
s(I1
I2
I432000
I336088
tp4180
F2.5
s(I9
I0
I0
I64
tp4181
F3.2
s(I2
I0
I0
I696
tp4182
F3.2
s(I11
I0
I0
I107
tp4183
F3.2
s(I2
I0
I0
I261
tp4184
F3.2
s(I1
I11
I1555200
I1650390
tp4185
F2.5
s(I1
I2
I518400
I512994
tp4186
F2.5
s(I5
I0
I0
I216
tp4187
F3.2
s(I4
I0
I0
I750
tp4188
F3.2
s(I0
I0
I86400
I59722
tp4189
F2.5
s(I1
I2
I518400
I490002
tp4190
F2.5
s(I7
I0
I0
I211
tp4191
F3.2
s(I6
I0
I0
I14079
tp4192
F2.5
s(I1
I0
I0
I21
tp4193
F3.2
s(I30
I0
I0
I337
tp4194
F2.5
s(I2
I1
I86400
I113857
tp4195
F2.5
s(I3
I1
I86400
I77270
tp4196
F2.5
s(I1
I7
I1036800
I1003559
tp4197
F2.5
s(I1
I6
I950400
I931054
tp4198
F2.5
s(I1
I1
I518400
I1303052
tp4199
F2.5
s(I1
I4
I345600
I198971
tp4200
F2.5
s(I2
I7
I86400
I14794
tp4201
F2.5
s(I13
I0
I0
I2538
tp4202
F2.5
s(I9
I0
I0
I36516
tp4203
F2.5
s(I0
I0
I86400
I37232
tp4204
F2.5
s(I1
I3
I950400
I932531
tp4205
F2.5
s(I1
I1
I172800
I160490
tp4206
F2.5
s(I1
I0
I0
I99625
tp4207
F2.5
s(I2
I0
I0
I13490
tp4208
F2.5
s(I2
I20
I777600
I759701
tp4209
F2.5
s(I0
I0
I1468800
I1448216
tp4210
F2.5
s(I3
I0
I0
I97
tp4211
F3.2
s(I2
I0
I0
I165
tp4212
F3.2
s(I2
I2
I432000
I1063197
tp4213
F2.5
s(I3
I3
I950400
I875717
tp4214
F2.5
s(I8
I0
I0
I171984
tp4215
F2.5
s(I5
I0
I0
I120
tp4216
F3.2
s(I4
I0
I0
I270
tp4217
F3.2
s(I7
I2
I604800
I624731
tp4218
F2.5
s(I1
I1
I86400
I37973
tp4219
F2.5
s(I7
I0
I0
I115
tp4220
F3.2
s(I12
I0
I0
I1389
tp4221
F2.5
s(I4
I0
I0
I55
tp4222
F3.2
s(I0
I0
I518400
I515305
tp4223
F2.5
s(I1
I1
I86400
I58331
tp4224
F2.5
s(I1
I0
I0
I696
tp4225
F3.2
s(I1
I9
I777600
I241550
tp4226
F2.5
s(I2
I2
I432000
I437127
tp4227
F2.5
s(I18
I0
I0
I271
tp4228
F2.5
s(I4
I0
I0
I105370
tp4229
F2.5
s(I1
I1
I172800
I199271
tp4230
F2.5
s(I1
I2
I604800
I910889
tp4231
F2.5
s(I3
I2
I518400
I495340
tp4232
F2.5
s(I8
I0
I0
I170370
tp4233
F2.5
s(I1
I14
I172800
I95185
tp4234
F2.5
s(I1
I3
I1209600
I1497757
tp4235
F2.5
s(I4
I0
I0
I216
tp4236
F3.2
s(I8
I2
I432000
I437760
tp4237
F2.5
s(I2
I2
I604800
I610056
tp4238
F2.5
s(I8
I0
I0
I133
tp4239
F3.2
s(I3
I1
I86400
I38228
tp4240
F2.5
s(I1
I1
I172800
I4510
tp4241
F2.5
s(I8
I2
I604800
I609929
tp4242
F2.5
s(I1
I1
I86400
I157572
tp4243
F2.5
s(I2
I0
I0
I69
tp4244
F3.2
s(I1
I4
I86400
I28
tp4245
F2.5
s(I1
I4
I259200
I214094
tp4246
F2.5
s(I1
I1
I86400
I84193
tp4247
F2.5
s(I6
I1
I86400
I165321
tp4248
F2.5
s(I4
I0
I0
I779
tp4249
F3.2
s(I1
I8
I1036800
I1497738
tp4250
F2.5
s(I7
I0
I0
I2537
tp4251
F2.5
s(I1
I2
I518400
I495120
tp4252
F2.5
s(I0
I0
I3801600
I3967947
tp4253
F2.5
s(I1
I5
I345600
I3036
tp4254
F2.5
s(I0
I0
I1123200
I1376883
tp4255
F2.5
s(I12
I0
I0
I201
tp4256
F3.2
s(I0
I0
I172800
I168123
tp4257
F2.5
s(I2
I1
I86400
I57001
tp4258
F2.5
s(I1
I4
I604800
I622807
tp4259
F2.5
s(I2
I1
I172800
I146743
tp4260
F2.5
s(I1
I2
I604800
I565241
tp4261
F2.5
s(I2
I0
I0
I220
tp4262
F3.2
s(I37
I0
I0
I185
tp4263
F2.5
s(I4
I0
I0
I293
tp4264
F3.2
s(I6
I0
I0
I10298
tp4265
F2.5
s(I1
I8
I1555200
I1650391
tp4266
F2.5
s(I7
I0
I0
I152
tp4267
F3.2
s(I1
I2
I432000
I419738
tp4268
F2.5
s(I3
I0
I0
I204
tp4269
F3.2
s(I3
I0
I0
I289
tp4270
F3.2
s(I1
I11
I86400
I3599
tp4271
F2.5
s(I1
I3
I172800
I53621
tp4272
F2.5
s(I0
I0
I86400
I78842
tp4273
F2.5
s(I4
I2
I518400
I559175
tp4274
F2.5
s(I21
I0
I0
I172
tp4275
F2.5
s(I2
I1
I86400
I125566
tp4276
F2.5
s(I3
I1
I86400
I79962
tp4277
F2.5
s(I3
I0
I0
I3197
tp4278
F2.5
s(I3
I1
I86400
I75175
tp4279
F2.5
s(I5
I0
I0
I403
tp4280
F3.2
s(I9
I0
I0
I2641
tp4281
F2.5
s(I1
I1
I86400
I13033
tp4282
F2.5
s(I4
I0
I0
I66826
tp4283
F2.5
s(I1
I0
I0
I60
tp4284
F3.2
s(I0
I0
I172800
I131923
tp4285
F2.5
s(I0
I0
I86400
I72600
tp4286
F2.5
s(I1
I3
I1382400
I1317542
tp4287
F2.5
s(I4
I0
I0
I98551
tp4288
F2.5
s(I3
I0
I0
I183
tp4289
F3.2
s(I0
I0
I86400
I78344
tp4290
F2.5
s(I1
I1
I432000
I350340
tp4291
F2.5
s(I13
I0
I0
I1249
tp4292
F2.5
s(I1
I7
I1382400
I1499489
tp4293
F2.5
s(I4
I0
I0
I350212
tp4294
F2.5
s(I1
I2
I432000
I186608
tp4295
F2.5
s(I2
I0
I0
I124
tp4296
F3.2
s(I1
I11
I691200
I850093
tp4297
F2.5
s(I1
I2
I432000
I2869
tp4298
F2.5
s(I1
I3
I432000
I214
tp4299
F2.5
s(I3
I0
I0
I170359
tp4300
F2.5
s(I1
I1
I172800
I67181
tp4301
F2.5
s(I2
I4
I172800
I102476
tp4302
F2.5
s(I1
I10
I1468800
I1721406
tp4303
F2.5
s(I27
I0
I0
I455
tp4304
F2.5
s(I13
I0
I0
I1395
tp4305
F2.5
s(I1
I0
I0
I389
tp4306
F3.2
s(I1
I0
I0
I176670
tp4307
F2.5
s(I9
I0
I0
I172154
tp4308
F2.5
s(I19
I0
I0
I264
tp4309
F2.5
s(I4
I0
I0
I110
tp4310
F3.2
s(I14
I0
I0
I201
tp4311
F3.2
s(I4
I0
I0
I971
tp4312
F3.2
s(I1
I3
I432000
I3075
tp4313
F2.5
s(I7
I1
I86400
I165561
tp4314
F2.5
s(I1
I2
I518400
I615404
tp4315
F2.5
s(I2
I0
I0
I247
tp4316
F3.2
s(I7
I0
I0
I36333
tp4317
F2.5
s(I0
I0
I172800
I167921
tp4318
F2.5
s(I0
I0
I604800
I604248
tp4319
F2.5
s(I1
I1
I86400
I98229
tp4320
F2.5
s(I8
I0
I0
I85
tp4321
F3.2
s(I1
I4
I259200
I44177
tp4322
F2.5
s(I19
I0
I0
I250
tp4323
F2.5
s(I2
I0
I0
I28
tp4324
F3.2
s(I1
I3
I864000
I960741
tp4325
F2.5
s(I2
I2
I518400
I528509
tp4326
F2.5
s(I2
I1
I172800
I87525
tp4327
F2.5
s(I2
I1
I172800
I324311
tp4328
F2.5
s(I2
I2
I432000
I435735
tp4329
F2.5
s(I1
I2
I604800
I604215
tp4330
F2.5
s(I1
I2
I518400
I495177
tp4331
F2.5
s(I1
I0
I0
I101
tp4332
F3.2
s(I0
I0
I518400
I490089
tp4333
F2.5
s(I4
I0
I0
I142
tp4334
F3.2
s(I5
I0
I0
I339
tp4335
F3.2
s(I1
I2
I432000
I424211
tp4336
F2.5
s(I1
I3
I1036800
I1041548
tp4337
F2.5
s(I1
I0
I0
I892
tp4338
F3.2
s(I1
I2
I604800
I595752
tp4339
F2.5
s(I3
I0
I0
I119
tp4340
F3.2
s(I0
I0
I172800
I177836
tp4341
F2.5
s(I6
I0
I0
I13920
tp4342
F2.5
s(I1
I3
I604800
I632390
tp4343
F2.5
s(I5
I0
I0
I106
tp4344
F3.2
s(I1
I3
I1641600
I1650405
tp4345
F2.5
s(I0
I0
I1296000
I3095608
tp4346
F2.5
s(I1
I1
I86400
I58108
tp4347
F2.5
s(I1
I1
I86400
I70759
tp4348
F2.5
s(I2
I9
I777600
I760095
tp4349
F2.5
s(I1
I0
I0
I682
tp4350
F3.2
s(I1
I13
I345600
I333566
tp4351
F2.5
s(I9
I0
I0
I107
tp4352
F3.2
s(I1
I5
I172800
I106427
tp4353
F2.5
s(I1
I11
I259200
I213627
tp4354
F2.5
s(I1
I9
I432000
I238751
tp4355
F2.5
s(I1
I2
I432000
I406198
tp4356
F2.5
s(I2
I1
I172800
I168178
tp4357
F2.5
s(I1
I4
I1123200
I1105875
tp4358
F2.5
s(I2
I1
I86400
I75048
tp4359
F2.5
s(I2
I0
I0
I55
tp4360
F3.2
s(I1
I0
I0
I375
tp4361
F3.2
s(I3
I0
I0
I78665
tp4362
F2.5
s(I1
I2
I518400
I630876
tp4363
F2.5
s(I1
I2
I432000
I481135
tp4364
F2.5
s(I1
I2
I518400
I585704
tp4365
F2.5
s(I6
I0
I0
I177253
tp4366
F2.5
s(I2
I8
I259200
I214032
tp4367
F2.5
s(I3
I1
I86400
I75253
tp4368
F2.5
s(I2
I2
I432000
I437116
tp4369
F2.5
s(I1
I2
I604800
I63724
tp4370
F2.5
s(I1
I0
I0
I78
tp4371
F3.2
s(I2
I0
I0
I11912
tp4372
F2.5
s(I2
I0
I0
I77843
tp4373
F2.5
s(I2
I0
I0
I441
tp4374
F3.2
s(I1
I5
I1382400
I1408344
tp4375
F2.5
s(I5
I0
I0
I991
tp4376
F3.2
s(I1
I8
I259200
I2744
tp4377
F2.5
s(I1
I1
I86400
I91314
tp4378
F2.5
s(I1
I1
I86400
I38421
tp4379
F2.5
s(I5
I0
I0
I19
tp4380
F3.2
s(I1
I13
I777600
I801080
tp4381
F2.5
s(I3
I0
I0
I311
tp4382
F3.2
s(I0
I0
I86400
I156867
tp4383
F2.5
s(I1
I2
I518400
I489957
tp4384
F2.5
s(I2
I4
I1123200
I1380236
tp4385
F2.5
s(I0
I0
I604800
I595894
tp4386
F2.5
s(I22
I0
I0
I209
tp4387
F2.5
s(I1
I0
I0
I46
tp4388
F3.2
s(I6
I1
I172800
I160183
tp4389
F2.5
s(I0
I0
I432000
I0
tp4390
F2.5
s(I1
I2
I518400
I495042
tp4391
F2.5
s(I14
I0
I0
I112
tp4392
F3.2
s(I2
I2
I518400
I586984
tp4393
F2.5
s(I2
I9
I259200
I214032
tp4394
F2.5
s(I4
I0
I0
I139635
tp4395
F2.5
s(I1
I10
I691200
I688408
tp4396
F3.2
s(I1
I1
I172800
I4483
tp4397
F2.5
s(I2
I19
I604800
I622800
tp4398
F2.5
s(I1
I2
I604800
I534982
tp4399
F2.5
s(I2
I0
I0
I589511
tp4400
F2.5
s(I2
I0
I0
I110
tp4401
F3.2
s(I1
I3
I1468800
I1541870
tp4402
F2.5
s(I1
I5
I86400
I94810
tp4403
F2.5
s(I1
I0
I0
I99579
tp4404
F2.5
s(I7
I0
I0
I198
tp4405
F3.2
s(I2
I1
I86400
I156746
tp4406
F2.5
s(I1
I0
I0
I540
tp4407
F3.2
s(I0
I0
I172800
I106085
tp4408
F2.5
s(I2
I5
I172800
I149896
tp4409
F2.5
s(I6
I0
I0
I40119
tp4410
F2.5
s(I1
I0
I0
I439
tp4411
F3.2
s(I1
I2
I518400
I1345
tp4412
F2.5
s(I1
I5
I604800
I1293
tp4413
F2.5
s(I3
I0
I0
I37
tp4414
F3.2
s(I2
I17
I432000
I801126
tp4415
F2.5
s(I2
I10
I1036800
I1022401
tp4416
F2.5
s(I1
I4
I86400
I41007
tp4417
F2.5
s(I1
I2
I604800
I609269
tp4418
F2.5
s(I16
I0
I0
I221
tp4419
F3.0
s(I7
I0
I0
I191
tp4420
F3.2
s(I2
I0
I0
I14
tp4421
F3.2
s(I1
I0
I0
I256
tp4422
F3.2
s(I4
I0
I0
I491
tp4423
F3.2
s(I1
I0
I0
I764
tp4424
F3.2
s(I1
I2
I518400
I515125
tp4425
F2.5
s(I1
I0
I0
I23
tp4426
F3.2
s(I1
I1
I432000
I420543
tp4427
F2.5
s(I1
I9
I432000
I308541
tp4428
F2.5
s(I4
I0
I0
I156
tp4429
F3.2
s(I3
I0
I0
I146
tp4430
F3.2
s(I1
I8
I864000
I3569
tp4431
F2.5
s(I0
I0
I86400
I78445
tp4432
F2.5
s(I3
I2
I604800
I607271
tp4433
F2.5
s(I0
I0
I604800
I624731
tp4434
F2.5
s(I1
I0
I0
I878
tp4435
F3.2
s(I29
I0
I0
I230
tp4436
F2.5
s(I1
I7
I950400
I928132
tp4437
F2.5
s(I3
I0
I0
I544
tp4438
F3.2
s(I0
I0
I86400
I75059
tp4439
F2.5
s(I0
I0
I86400
I59702
tp4440
F2.5
s(I16
I0
I0
I189
tp4441
F3.2
s(I1
I0
I0
I581
tp4442
F3.2
s(I7
I0
I0
I95
tp4443
F3.2
s(I1
I4
I777600
I809222
tp4444
F2.5
s(I1
I6
I432000
I93498
tp4445
F2.5
s(I1
I3
I172800
I131920
tp4446
F2.5
s(I1
I2
I604800
I795495
tp4447
F2.5
s(I1
I2
I432000
I429400
tp4448
F2.5
s(I7
I0
I0
I166
tp4449
F3.2
s(I2
I1
I86400
I156977
tp4450
F2.5
s(I0
I0
I172800
I123298
tp4451
F2.5
s(I1
I0
I0
I247
tp4452
F3.2
s(I1
I3
I86400
I47395
tp4453
F2.5
s(I1
I2
I518400
I1733
tp4454
F2.5
s(I1
I7
I432000
I444086
tp4455
F2.5
s(I3
I0
I0
I242
tp4456
F3.2
s(I6
I0
I0
I189
tp4457
F3.2
s(I3
I0
I0
I681
tp4458
F3.2
s(I19
I0
I0
I209
tp4459
F2.5
s(I0
I0
I86400
I281376
tp4460
F2.5
s(I1
I0
I0
I361
tp4461
F3.2
s(I1
I19
I1209600
I1388467
tp4462
F2.5
s(I0
I0
I172800
I92148
tp4463
F2.5
s(I2
I2
I518400
I528410
tp4464
F2.5
s(I0
I0
I86400
I107923
tp4465
F2.5
s(I2
I1
I86400
I113878
tp4466
F2.5
s(I4
I0
I0
I72072
tp4467
F2.5
s(I1
I1
I86400
I2339
tp4468
F2.5
s(I1
I11
I604800
I604963
tp4469
F2.5
s(I1
I0
I0
I64
tp4470
F3.2
s(I4
I0
I0
I66559
tp4471
F2.5
s(I0
I0
I86400
I477616
tp4472
F2.5
s(I0
I0
I172800
I162709
tp4473
F2.5
s(I4
I0
I0
I89270
tp4474
F2.5
s(I2
I0
I0
I102388
tp4475
F2.5
s(I5
I0
I0
I969
tp4476
F3.2
s(I2
I0
I0
I176
tp4477
F3.2
s(I1
I5
I259200
I3711
tp4478
F2.5
s(I1
I2
I432000
I858390
tp4479
F2.5
s(I4
I1
I86400
I105001
tp4480
F2.5
s(I6
I0
I0
I285
tp4481
F3.2
s(I3
I0
I0
I521
tp4482
F3.2
s(I1
I1
I259200
I261939
tp4483
F2.5
s(I1
I3
I1641600
I1893746
tp4484
F2.5
s(I0
I0
I604800
I326100
tp4485
F2.5
s(I0
I0
I172800
I168142
tp4486
F2.5
s(I1
I5
I259200
I236808
tp4487
F2.5
s(I14
I0
I0
I149
tp4488
F3.2
s(I0
I0
I86400
I103951
tp4489
F2.5
s(I16
I0
I0
I274
tp4490
F3.2
s(I1
I0
I0
I32
tp4491
F3.2
s(I28
I0
I0
I377
tp4492
F2.5
s(I1
I1
I518400
I873745
tp4493
F2.5
s(I11
I0
I0
I93
tp4494
F3.2
s(I2
I0
I0
I331
tp4495
F3.2
s(I2
I1
I172800
I14310
tp4496
F2.5
s(I5
I0
I0
I78717
tp4497
F2.5
s(I5
I0
I0
I150
tp4498
F3.2
s(I1
I2
I432000
I63838
tp4499
F2.5
s(I9
I0
I0
I317
tp4500
F3.2
s(I2
I1
I86400
I78495
tp4501
F2.5
s(I1
I6
I432000
I7874
tp4502
F2.5
s(I1
I1
I518400
I1212650
tp4503
F2.5
s(I1
I3
I1123200
I1497758
tp4504
F2.5
s(I1
I0
I0
I99565
tp4505
F2.5
s(I1
I4
I259200
I44212
tp4506
F2.5
s(I0
I0
I1468800
I1442301
tp4507
F2.5
s(I3
I0
I0
I499345
tp4508
F2.5
s(I0
I0
I172800
I219095
tp4509
F2.5
s(I1
I0
I0
I425
tp4510
F3.2
s(I1
I4
I259200
I214186
tp4511
F2.5
s(I1
I6
I604800
I601484
tp4512
F2.5
s(I20
I0
I0
I126
tp4513
F2.5
s(I12
I0
I0
I244
tp4514
F3.2
s(I4
I0
I0
I66
tp4515
F3.2
s(I0
I0
I172800
I160754
tp4516
F2.5
s(I6
I0
I0
I111
tp4517
F3.2
s(I4
I1
I86400
I78282
tp4518
F2.5
s(I1
I6
I345600
I306240
tp4519
F2.5
s(I1
I3
I172800
I91457
tp4520
F2.5
s(I1
I1
I86400
I157298
tp4521
F2.5
s(I10
I0
I0
I369
tp4522
F3.2
s(I3
I0
I0
I59
tp4523
F3.2
s(I0
I0
I259200
I198860
tp4524
F2.5
s(I1
I4
I1123200
I1111882
tp4525
F2.5
s(I29
I0
I0
I176
tp4526
F2.5
s(I6
I0
I0
I372
tp4527
F3.2
s(I5
I0
I0
I54
tp4528
F3.2
s(I1
I4
I259200
I142349
tp4529
F2.5
s(I1
I5
I950400
I1041568
tp4530
F2.5
s(I3
I0
I0
I274
tp4531
F3.2
s(I20
I0
I0
I245
tp4532
F2.5
s(I4
I0
I0
I505
tp4533
F3.2
s(I3
I1
I172800
I269968
tp4534
F2.5
s(I24
I0
I0
I270
tp4535
F2.5
s(I7
I0
I0
I420
tp4536
F3.2
s(I2
I0
I0
I9192
tp4537
F2.5
s(I9
I0
I0
I47
tp4538
F3.2
s(I1
I0
I0
I9
tp4539
F2.17
s(I0
I0
I86400
I166083
tp4540
F2.5
s(I1
I6
I1382400
I1390359
tp4541
F2.5
s(I3
I0
I0
I160
tp4542
F3.2
s(I3
I0
I0
I589337
tp4543
F2.5
s(I1
I1
I86400
I98
tp4544
F2.5
s(I1
I0
I0
I13912
tp4545
F2.5
s(I17
I0
I0
I79077
tp4546
F2.5
s(I2
I0
I0
I139
tp4547
F3.2
s(I0
I0
I3024000
I2991098
tp4548
F2.5
s(I3
I0
I0
I2616
tp4549
F2.5
s(I4
I0
I0
I368
tp4550
F3.2
s(I1
I2
I518400
I524958
tp4551
F2.5
s(I1
I2
I518400
I199807
tp4552
F2.5
s(I8
I0
I0
I209
tp4553
F3.2
s(I3
I0
I0
I72479
tp4554
F2.5
s(I10
I1
I172800
I286370
tp4555
F2.5
s(I3
I0
I0
I370
tp4556
F3.2
s(I1
I5
I432000
I1292
tp4557
F2.5
s(I4
I0
I0
I25
tp4558
F3.2
s(I14
I0
I0
I220
tp4559
F3.2
s(I12
I0
I0
I632
tp4560
F3.0
s(I2
I1
I86400
I47848
tp4561
F2.5
s(I1
I0
I0
I233
tp4562
F3.2
s(I2
I1
I86400
I80051
tp4563
F2.5
s(I8
I0
I0
I36677
tp4564
F2.5
s(I3
I0
I0
I0
tp4565
F2.87
s(I1
I2
I518400
I967861
tp4566
F2.5
s(I5
I0
I0
I223
tp4567
F3.2
s(I33
I0
I0
I280
tp4568
F2.5
s(I1
I9
I259200
I213574
tp4569
F2.5
s(I7
I0
I0
I210
tp4570
F3.2
s(I4
I0
I0
I26394
tp4571
F2.5
s(I1
I9
I432000
I467327
tp4572
F2.5
s(I18
I0
I0
I199
tp4573
F2.5
s(I2
I0
I0
I43
tp4574
F3.2
s(I0
I0
I604800
I624614
tp4575
F2.5
s(I1
I7
I432000
I3510
tp4576
F2.5
s(I41
I0
I0
I72750
tp4577
F2.5
s(I2
I1
I86400
I38678
tp4578
F2.5
s(I11
I0
I0
I1081
tp4579
F2.5
s(I4
I0
I0
I588972
tp4580
F2.5
s(I14
I0
I0
I295
tp4581
F3.2
s(I2
I1
I172800
I270817
tp4582
F2.5
s(I1
I9
I432000
I466479
tp4583
F2.5
s(I1
I4
I1382400
I1373438
tp4584
F2.5
s(I1
I1
I432000
I419093
tp4585
F2.5
s(I1
I8
I172800
I3209
tp4586
F2.5
s(I4
I0
I0
I185
tp4587
F3.2
s(I1
I2
I518400
I106736
tp4588
F2.5
s(I15
I0
I0
I270
tp4589
F3.2
s(I5
I0
I0
I352
tp4590
F3.2
s(I1
I3
I172800
I131913
tp4591
F2.5
s(I2
I0
I0
I13491
tp4592
F2.5
s(I2
I3
I86400
I44068
tp4593
F2.5
s(I4
I0
I0
I7619
tp4594
F2.5
s(I0
I0
I86400
I70859
tp4595
F2.5
s(I1
I11
I259200
I251071
tp4596
F2.5
s(I3
I0
I0
I96
tp4597
F3.2
s(I1
I3
I864000
I1041500
tp4598
F2.5
s(I1
I5
I432000
I3092
tp4599
F2.5
s(I1
I10
I86400
I40781
tp4600
F2.5
s(I1
I8
I86400
I40777
tp4601
F2.5
s(I1
I3
I432000
I447002
tp4602
F2.5
s(I16
I0
I0
I146
tp4603
F3.2
s(I8
I0
I0
I136
tp4604
F3.2
s(I1
I1
I86400
I47887
tp4605
F2.5
s(I4
I2
I518400
I479580
tp4606
F2.5
s(I2
I4
I172800
I156498
tp4607
F2.5
s(I14
I0
I0
I13060
tp4608
F2.5
s(I3
I0
I0
I347
tp4609
F3.2
s(I1
I0
I0
I507
tp4610
F3.2
s(I2
I0
I0
I217425
tp4611
F2.5
s(I1
I1
I172800
I89860
tp4612
F2.5
s(I4
I0
I0
I48
tp4613
F3.2
s(I1
I2
I518400
I630889
tp4614
F2.5
s(I0
I0
I86400
I78281
tp4615
F2.5
s(I1
I3
I777600
I767912
tp4616
F2.5
s(I2
I1
I86400
I92207
tp4617
F2.5
s(I1
I4
I172800
I53744
tp4618
F2.5
s(I2
I1
I172800
I134553
tp4619
F2.5
s(I2
I1
I86400
I78539
tp4620
F2.5
s(I8
I1
I172800
I286624
tp4621
F2.5
s(I1
I11
I86400
I40993
tp4622
F2.5
s(I2
I14
I172800
I163073
tp4623
F2.5
s(I0
I0
I172800
I167989
tp4624
F2.5
s(I0
I0
I86400
I12834
tp4625
F2.5
s(I2
I0
I0
I72398
tp4626
F2.5
s(I1
I9
I777600
I809230
tp4627
F2.5
s(I24
I0
I0
I211
tp4628
F2.5
s(I7
I0
I0
I251
tp4629
F3.2
s(I10
I1
I172800
I286236
tp4630
F2.5
s(I3
I0
I0
I142
tp4631
F3.2
s(I2
I0
I0
I66
tp4632
F3.2
s(I0
I0
I86400
I70346
tp4633
F2.5
s(I0
I0
I777600
I850081
tp4634
F2.5
s(I3
I0
I0
I2657
tp4635
F2.5
s(I0
I0
I172800
I160370
tp4636
F2.5
s(I8
I0
I0
I232
tp4637
F3.2
s(I18
I0
I0
I102668
tp4638
F2.5
s(I3
I0
I0
I66586
tp4639
F2.5
s(I14
I0
I0
I13156
tp4640
F2.5
s(I17
I0
I0
I303
tp4641
F2.5
s(I6
I0
I0
I9316
tp4642
F2.5
s(I1
I0
I0
I91
tp4643
F3.2
s(I0
I0
I86400
I82333
tp4644
F2.5
s(I2
I0
I0
I436
tp4645
F3.2
s(I2
I2
I518400
I476609
tp4646
F2.5
s(I6
I0
I0
I25
tp4647
F3.2
s(I5
I0
I0
I265
tp4648
F3.2
s(I1
I5
I259200
I265407
tp4649
F2.5
s(I5
I0
I0
I102661
tp4650
F2.5
s(I10
I1
I86400
I25634
tp4651
F2.5
s(I1
I11
I864000
I931047
tp4652
F2.5
s(I1
I4
I950400
I958818
tp4653
F2.5
s(I1
I0
I0
I3783
tp4654
F2.5
s(I5
I0
I0
I32
tp4655
F3.2
s(I3
I0
I0
I740
tp4656
F3.2
s(I1
I2
I604800
I609225
tp4657
F2.5
s(I8
I0
I0
I127
tp4658
F3.2
s(I1
I3
I518400
I492716
tp4659
F2.5
s(I7
I0
I0
I155
tp4660
F3.2
s(I1
I3
I950400
I1497500
tp4661
F2.5
s(I1
I0
I0
I292
tp4662
F3.2
s(I2
I0
I0
I10431
tp4663
F2.5
s(I2
I2
I604800
I600972
tp4664
F2.5
s(I1
I3
I345600
I195
tp4665
F2.5
s(I1
I0
I0
I736
tp4666
F3.2
s(I25
I0
I0
I461
tp4667
F2.5
s(I1
I0
I0
I59
tp4668
F3.2
s(I4
I0
I0
I240
tp4669
F3.2
s(I3
I0
I0
I182
tp4670
F3.2
s(I1
I1
I172800
I2528
tp4671
F2.5
s(I4
I1
I172800
I270820
tp4672
F2.5
s(I1
I3
I86400
I2555
tp4673
F2.5
s(I0
I0
I1987200
I2237920
tp4674
F2.5
s(I7
I0
I0
I685
tp4675
F3.2
s(I10
I0
I0
I1095
tp4676
F2.5
s(I0
I0
I172800
I3451288
tp4677
F2.5
s(I2
I1
I86400
I75030
tp4678
F2.5
s(I1
I0
I0
I13797
tp4679
F2.5
s(I3
I0
I0
I425
tp4680
F3.2
s(I2
I0
I0
I125
tp4681
F3.2
s(I0
I0
I172800
I177734
tp4682
F2.5
s(I1
I2
I604800
I601168
tp4683
F2.5
s(I1
I2
I432000
I432477
tp4684
F2.5
s(I8
I0
I0
I223
tp4685
F3.2
s(I32
I0
I0
I86088
tp4686
F2.5
s(I2
I1
I172800
I157104
tp4687
F2.5
s(I1
I4
I259200
I53794
tp4688
F2.5
s(I1
I0
I0
I388
tp4689
F3.2
s(I2
I0
I0
I10335
tp4690
F2.5
s(I1
I1
I172800
I160081
tp4691
F2.5
s(I4
I0
I0
I111
tp4692
F3.2
s(I2
I1
I86400
I58662
tp4693
F2.5
s(I15
I0
I0
I220
tp4694
F3.2
s(I9
I0
I0
I81
tp4695
F3.2
s(I0
I0
I172800
I161941
tp4696
F2.5
s(I1
I0
I0
I155
tp4697
F3.2
s(I24
I0
I0
I105319
tp4698
F2.5
s(I1
I2
I432000
I6219403
tp4699
F2.5
s(I0
I0
I432000
I450169
tp4700
F2.5
s(I3
I0
I0
I22
tp4701
F3.2
s(I2
I0
I0
I244
tp4702
F3.2
s(I1
I2
I432000
I3074
tp4703
F2.5
s(I1
I3
I604800
I568454
tp4704
F2.5
s(I1
I4
I1814400
I1791153
tp4705
F2.5
s(I4
I2
I518400
I508439
tp4706
F2.5
s(I5
I1
I172800
I132143
tp4707
F2.5
s(I2
I0
I0
I29
tp4708
F3.2
s(I23
I0
I0
I811
tp4709
F2.5
s(I2
I0
I0
I117784
tp4710
F2.5
s(I0
I0
I86400
I156701
tp4711
F2.5
s(I8
I0
I0
I319
tp4712
F3.2
s(I1
I1
I172800
I15656
tp4713
F2.5
s(I2
I3
I86400
I25959
tp4714
F2.5
s(I2
I0
I0
I13305
tp4715
F2.5
s(I11
I0
I0
I145
tp4716
F3.2
s(I4
I0
I0
I143
tp4717
F3.2
s(I1
I1
I86400
I37051
tp4718
F2.5
s(I1
I1
I172800
I145142
tp4719
F2.5
s(I13
I0
I0
I1209
tp4720
F2.5
s(I3
I0
I0
I118
tp4721
F3.2
s(I3
I0
I0
I139585
tp4722
F2.5
s(I1
I6
I172800
I106159
tp4723
F2.5
s(I1
I0
I0
I89685
tp4724
F2.5
s(I2
I0
I0
I1360
tp4725
F3.2
s(I1
I4
I1900800
I1967880
tp4726
F2.5
s(I7
I0
I0
I64
tp4727
F3.2
s(I1
I2
I432000
I419794
tp4728
F2.5
s(I2
I2
I432000
I420066
tp4729
F2.5
s(I9
I0
I0
I172050
tp4730
F2.5
s(I1
I1
I86400
I25921
tp4731
F2.5
s(I3
I0
I0
I772
tp4732
F3.2
s(I11
I0
I0
I89178
tp4733
F2.5
s(I2
I1
I172800
I157296
tp4734
F2.5
s(I1
I0
I0
I196
tp4735
F3.2
s(I13
I0
I0
I9990
tp4736
F2.5
s(I2
I2
I518400
I495277
tp4737
F2.5
s(I25
I0
I0
I171773
tp4738
F2.5
s(I6
I0
I0
I176
tp4739
F3.2
s(I1
I10
I172800
I104052
tp4740
F2.5
s(I1
I2
I604800
I609215
tp4741
F2.5
s(I1
I11
I86400
I115445
tp4742
F2.5
s(I2
I0
I0
I52
tp4743
F3.2
s(I1
I6
I432000
I466477
tp4744
F2.5
s(I1
I7
I259200
I209204
tp4745
F2.5
s(I2
I2
I518400
I480298
tp4746
F2.5
s(I1
I2
I518400
I585707
tp4747
F2.5
s(I8
I0
I0
I278
tp4748
F3.2
s(I14
I0
I0
I312
tp4749
F3.2
s(I10
I0
I0
I227
tp4750
F3.2
s(I1
I0
I0
I77
tp4751
F3.2
s(I1
I1
I86400
I210875
tp4752
F2.5
s(I2
I0
I0
I77840
tp4753
F2.5
s(I4
I0
I0
I166
tp4754
F3.2
s(I7
I0
I0
I283
tp4755
F3.2
s(I3
I2
I518400
I479646
tp4756
F2.5
s(I1
I3
I259200
I2685
tp4757
F2.5
s(I1
I0
I0
I164
tp4758
F3.2
s(I1
I0
I0
I13623
tp4759
F2.5
s(I3
I1
I86400
I56866
tp4760
F2.5
s(I1
I14
I1382400
I1721277
tp4761
F2.5
s(I1
I14
I345600
I306374
tp4762
F2.5
s(I1
I2
I518400
I477238
tp4763
F2.5
s(I0
I0
I3024000
I3084085
tp4764
F2.5
s(I5
I0
I0
I79053
tp4765
F2.5
s(I45
I0
I0
I175
tp4766
F1.75
s(I21
I0
I0
I189
tp4767
F2.5
s(I0
I0
I172800
I324623
tp4768
F2.5
s(I0
I0
I86400
I75366
tp4769
F2.5
s(I14
I0
I0
I152
tp4770
F3.2
s(I2
I1
I86400
I102211
tp4771
F2.5
s(I0
I0
I172800
I217447
tp4772
F2.5
s(I0
I0
I172800
I184712
tp4773
F2.5
s(I0
I0
I172800
I218135
tp4774
F2.5
s(I4
I0
I0
I198
tp4775
F3.2
s(I3
I0
I0
I196
tp4776
F3.2
s(I2
I0
I0
I66375
tp4777
F2.5
s(I1
I2
I518400
I495053
tp4778
F2.5
s(I6
I0
I0
I235
tp4779
F3.2
s(I4
I0
I0
I675
tp4780
F3.2
s(I1
I0
I0
I99811
tp4781
F2.5
s(I1
I5
I172800
I172525
tp4782
F2.5
s(I1
I2
I432000
I105063
tp4783
F2.5
s(I2
I2
I518400
I479637
tp4784
F2.5
s(I10
I0
I0
I501
tp4785
F3.2
s(I2
I0
I0
I111
tp4786
F3.2
s(I1
I0
I0
I351
tp4787
F3.2
s(I3
I2
I518400
I525055
tp4788
F2.5
s(I8
I0
I0
I205
tp4789
F3.2
s(I3
I1
I172800
I264641
tp4790
F2.5
s(I9
I0
I0
I188
tp4791
F3.2
s(I7
I0
I0
I36460
tp4792
F2.5
s(I6
I1
I86400
I102073
tp4793
F2.5
s(I4
I0
I0
I125
tp4794
F3.2
s(I1
I7
I86400
I115463
tp4795
F2.5
s(I18
I0
I0
I329
tp4796
F2.5
s(I1
I3
I604800
I642188
tp4797
F2.5
s(I1
I6
I432000
I308594
tp4798
F2.5
s(I1
I1
I86400
I113250
tp4799
F2.5
s(I21
I0
I0
I4940
tp4800
F2.5
s(I9
I0
I0
I1540
tp4801
F2.5
s(I2
I0
I0
I230
tp4802
F3.2
s(I1
I2
I432000
I393316
tp4803
F2.5
s(I1
I2
I432000
I199603
tp4804
F2.5
s(I0
I0
I86400
I86984
tp4805
F2.5
s(I1
I2
I432000
I551746
tp4806
F2.5
s(I1
I1
I172800
I172212
tp4807
F2.5
s(I1
I0
I0
I996
tp4808
F3.2
s(I14
I0
I0
I114275
tp4809
F2.5
s(I2
I0
I0
I239409
tp4810
F2.5
s(I1
I12
I345600
I387013
tp4811
F2.5
s(I20
I0
I0
I128
tp4812
F2.5
s(I0
I0
I172800
I168216
tp4813
F2.5
s(I1
I2
I518400
I525074
tp4814
F2.5
s(I9
I0
I0
I625
tp4815
F3.2
s(I1
I2
I432000
I63609
tp4816
F2.5
s(I9
I0
I0
I220
tp4817
F3.2
s(I1
I0
I0
I22
tp4818
F3.2
s(I1
I14
I1209600
I1719641
tp4819
F2.5
s(I3
I0
I0
I10342
tp4820
F2.5
s(I1
I2
I518400
I529820
tp4821
F2.5
s(I3
I0
I0
I173
tp4822
F3.2
s(I0
I0
I86400
I36459
tp4823
F2.5
s(I9
I0
I0
I792
tp4824
F3.2
s(I4
I1
I86400
I105192
tp4825
F2.5
s(I1
I2
I518400
I984544
tp4826
F2.5
s(I5
I2
I518400
I495277
tp4827
F2.5
s(I25
I0
I0
I255
tp4828
F2.5
s(I1
I2
I432000
I10661
tp4829
F2.5
s(I1
I6
I86400
I5491
tp4830
F2.5
s(I2
I3
I1209600
I1326800
tp4831
F2.5
s(I2
I0
I0
I134
tp4832
F3.2
s(I1
I7
I518400
I3540
tp4833
F2.5
s(I1
I2
I432000
I396243
tp4834
F2.5
s(I1
I3
I432000
I204
tp4835
F2.5
s(I0
I0
I518400
I314548
tp4836
F2.5
s(I2
I2
I518400
I508429
tp4837
F2.5
s(I16
I0
I0
I190
tp4838
F3.2
s(I0
I0
I604800
I582140
tp4839
F2.5
s(I1
I1
I172800
I145170
tp4840
F2.5
s(I7
I0
I0
I105421
tp4841
F2.5
s(I1
I0
I0
I415
tp4842
F3.2
s(I4
I0
I0
I20
tp4843
F3.2
s(I1
I2
I432000
I429403
tp4844
F2.5
s(I1
I6
I691200
I675736
tp4845
F2.5
s(I15
I0
I0
I227
tp4846
F3.2
s(I1
I2
I518400
I508188
tp4847
F2.5
s(I6
I0
I0
I85
tp4848
F3.2
s(I2
I3
I1209600
I1062819
tp4849
F2.5
s(I12
I1
I172800
I285121
tp4850
F2.5
s(I3
I0
I0
I13
tp4851
F3.2
s(I1
I2
I432000
I436921
tp4852
F2.5
s(I1
I3
I86400
I42082
tp4853
F2.5
s(I3
I1
I172800
I172189
tp4854
F2.5
s(I1
I2
I518400
I524800
tp4855
F2.5
s(I1
I1
I172800
I135068
tp4856
F2.5
s(I1
I7
I864000
I7869
tp4857
F2.5
s(I1
I2
I518400
I528353
tp4858
F2.5
s(I7
I0
I0
I199
tp4859
F3.2
s(I3
I0
I0
I2542
tp4860
F2.5
s(I17
I0
I0
I372
tp4861
F2.5
s(I10
I0
I0
I60
tp4862
F3.2
s(I2
I0
I0
I38
tp4863
F3.2
s(I1
I0
I0
I360
tp4864
F3.2
s(I0
I0
I86400
I78172
tp4865
F2.5
s(I1
I0
I0
I127
tp4866
F3.2
s(I1
I1
I86400
I36324
tp4867
F2.5
s(I19
I0
I0
I326
tp4868
F2.5
s(I1
I1
I432000
I0
tp4869
F2.5
s(I27
I0
I0
I170399
tp4870
F2.5
s(I0
I0
I1468800
I3882343
tp4871
F2.5
s(I15
I0
I0
I259
tp4872
F3.2
s(I4
I0
I0
I529
tp4873
F3.2
s(I1
I9
I86400
I115467
tp4874
F2.5
s(I1
I12
I1209600
I1648610
tp4875
F2.5
s(I9
I0
I0
I36423
tp4876
F2.5
s(I2
I0
I0
I368
tp4877
F3.2
s(I22
I0
I0
I342
tp4878
F2.5
s(I5
I0
I0
I12
tp4879
F3.2
s(I1
I2
I432000
I450547
tp4880
F2.5
s(I0
I0
I604800
I582083
tp4881
F2.5
s(I1
I2
I432000
I63631
tp4882
F2.5
s(I30
I0
I0
I170194
tp4883
F2.5
s(I1
I1
I518400
I873604
tp4884
F2.5
s(I1
I0
I0
I456
tp4885
F3.2
s(I0
I0
I86400
I156882
tp4886
F2.5
s(I0
I0
I432000
I2848
tp4887
F2.5
s(I1
I3
I1296000
I1286371
tp4888
F2.5
s(I1
I6
I432000
I450592
tp4889
F2.5
s(I0
I0
I604800
I15848
tp4890
F2.5
s(I1
I1
I172800
I160812
tp4891
F2.5
s(I2
I2
I604800
I565225
tp4892
F2.5
s(I1
I2
I432000
I362449
tp4893
F2.5
s(I20
I0
I0
I5116
tp4894
F2.5
s(I2
I0
I0
I751
tp4895
F3.2
s(I1
I0
I0
I223
tp4896
F3.2
s(I5
I0
I0
I114226
tp4897
F2.5
s(I4
I0
I0
I212
tp4898
F3.2
s(I3
I0
I0
I218
tp4899
F3.2
s(I1
I6
I86400
I96050
tp4900
F2.5
s(I6
I0
I0
I149
tp4901
F3.2
s(I1
I2
I604800
I2137
tp4902
F2.5
s(I1
I2
I432000
I450152
tp4903
F2.5
s(I12
I0
I0
I150
tp4904
F3.2
s(I2
I0
I0
I121732
tp4905
F2.5
s(I10
I0
I0
I487
tp4906
F3.2
s(I2
I0
I0
I81
tp4907
F3.2
s(I2
I2
I518400
I508415
tp4908
F2.5
s(I1
I3
I432000
I243
tp4909
F2.5
s(I1
I2
I432000
I3561
tp4910
F2.5
s(I0
I0
I86400
I75259
tp4911
F2.5
s(I1
I4
I259200
I44219
tp4912
F2.5
s(I8
I0
I0
I251
tp4913
F3.2
s(I5
I0
I0
I519
tp4914
F3.2
s(I1
I0
I0
I13536
tp4915
F2.5
s(I1
I0
I0
I424
tp4916
F3.2
s(I1
I1
I172800
I162954
tp4917
F2.5
s(I1
I6
I604800
I601487
tp4918
F2.5
s(I20
I0
I0
I127
tp4919
F2.5
s(I12
I0
I0
I245
tp4920
F3.2
s(I4
I0
I0
I67
tp4921
F3.2
s(I2
I0
I0
I451
tp4922
F3.2
s(I6
I0
I0
I108
tp4923
F3.2
s(I1
I7
I86400
I10378
tp4924
F2.5
s(I1
I0
I0
I13586
tp4925
F2.5
s(I3
I0
I0
I58
tp4926
F3.2
s(I1
I2
I432000
I439036
tp4927
F2.5
s(I0
I0
I172800
I171078
tp4928
F2.5
s(I2
I1
I172800
I323939
tp4929
F2.5
s(I7
I0
I0
I140
tp4930
F3.2
s(I2
I1
I86400
I36447
tp4931
F2.5
s(I3
I0
I0
I301
tp4932
F3.2
s(I1
I0
I0
I305
tp4933
F3.2
s(I1
I0
I0
I177034
tp4934
F2.5
s(I1
I2
I432000
I1063174
tp4935
F2.5
s(I2
I0
I0
I217479
tp4936
F2.5
s(I1
I1
I86400
I26109
tp4937
F2.5
s(I12
I0
I0
I124
tp4938
F3.2
s(I2
I2
I432000
I435828
tp4939
F2.5
s(I2
I1
I86400
I87526
tp4940
F2.5
s(I23
I0
I0
I203
tp4941
F2.5
s(I1
I7
I345600
I3324
tp4942
F2.5
s(I19
I0
I0
I66544
tp4943
F2.5
s(I1
I0
I0
I8
tp4944
F2.02
s(I1
I0
I0
I176865
tp4945
F2.5
s(I1
I2
I432000
I434168
tp4946
F2.5
s(I0
I0
I432000
I393318
tp4947
F2.5
s(I1
I1
I172800
I186301
tp4948
F2.5
s(I0
I0
I1555200
I3630588
tp4949
F2.5
s(I6
I0
I0
I204
tp4950
F3.2
s(I1
I11
I691200
I697435
tp4951
F2.5
s(I2
I7
I172800
I3524
tp4952
F2.5
s(I1
I2
I518400
I495918
tp4953
F2.5
s(I1
I1
I172800
I204546
tp4954
F2.5
s(I6
I2
I432000
I446358
tp4955
F2.5
s(I1
I2
I604800
I610000
tp4956
F2.5
s(I0
I0
I86400
I26123
tp4957
F2.5
s(I1
I9
I259200
I3604
tp4958
F2.5
s(I0
I0
I172800
I168177
tp4959
F2.5
s(I10
I0
I0
I398
tp4960
F3.2
s(I2
I0
I0
I136
tp4961
F3.2
s(I3
I1
I172800
I146325
tp4962
F2.5
s(I3
I0
I0
I78604
tp4963
F2.5
s(I22
I0
I0
I265
tp4964
F2.5
s(I2
I1
I86400
I25644
tp4965
F2.5
s(I2
I0
I0
I1332
tp4966
F3.2
s(I1
I0
I0
I630
tp4967
F3.2
s(I5
I2
I604800
I604612
tp4968
F2.5
s(I1
I11
I777600
I780657
tp4969
F2.5
s(I5
I0
I0
I171965
tp4970
F2.5
s(I1
I6
I172800
I44109
tp4971
F2.5
s(I0
I0
I172800
I162756
tp4972
F2.5
s(I1
I4
I1468800
I1812778
tp4973
F2.5
s(I7
I0
I0
I327
tp4974
F3.2
s(I5
I0
I0
I455
tp4975
F3.2
s(I1
I1
I86400
I2268
tp4976
F2.5
s(I2
I1
I86400
I35099
tp4977
F2.5
s(I27
I1
I86400
I78375
tp4978
F2.5
s(I12
I0
I0
I309
tp4979
F3.2
s(I1
I2
I604800
I600677
tp4980
F2.5
s(I5
I0
I0
I170293
tp4981
F2.5
s(I1
I3
I86400
I49314
tp4982
F2.5
s(I5
I0
I0
I222
tp4983
F3.2
s(I3
I0
I0
I702
tp4984
F3.2
s(I2
I0
I0
I942
tp4985
F3.2
s(I1
I11
I86400
I3478
tp4986
F2.5
s(I9
I0
I0
I373
tp4987
F3.2
s(I2
I0
I0
I170225
tp4988
F2.5
s(I2
I6
I172800
I131997
tp4989
F2.5
s(I0
I0
I86400
I91883
tp4990
F2.5
s(I1
I2
I518400
I526333
tp4991
F2.5
s(I2
I0
I0
I40
tp4992
F3.2
s(I1
I2
I604800
I730093
tp4993
F2.5
s(I1
I9
I518400
I525039
tp4994
F2.5
s(I2
I2
I432000
I435747
tp4995
F2.5
s(I44
I0
I0
I102711
tp4996
F2.5
s(I1
I0
I0
I113
tp4997
F3.2
s(I4
I0
I0
I186
tp4998
F3.2
s(I0
I0
I518400
I686322
tp4999
F2.5
s(I1
I2
I604800
I607236
tp5000
F2.5
s(I4
I2
I518400
I515208
tp5001
F2.5
s(I1
I3
I345600
I2769
tp5002
F2.5
s(I1
I3
I1382400
I1373396
tp5003
F2.5
s(I1
I5
I345600
I3790
tp5004
F2.5
s(I1
I0
I0
I840
tp5005
F3.2
s(I1
I5
I259200
I4396
tp5006
F2.5
s(I19
I0
I0
I79
tp5007
F1.3
s(I7
I0
I0
I72393
tp5008
F2.5
s(I1
I4
I864000
I919124
tp5009
F2.5
s(I2
I0
I0
I163
tp5010
F3.2
s(I1
I14
I1814400
I1771800
tp5011
F2.5
s(I6
I2
I432000
I437164
tp5012
F2.5
s(I6
I0
I0
I268
tp5013
F3.2
s(I0
I0
I604800
I584626
tp5014
F2.5
s(I24
I0
I0
I93
tp5015
F1.3
s(I1
I8
I345600
I306242
tp5016
F2.5
s(I1
I2
I432000
I419791
tp5017
F2.5
s(I3
I0
I0
I346
tp5018
F3.2
s(I0
I0
I86400
I139501
tp5019
F2.5
s(I1
I4
I172800
I4366
tp5020
F2.5
s(I13
I0
I0
I227
tp5021
F3.2
s(I11
I0
I0
I36754
tp5022
F2.5
s(I4
I0
I0
I49
tp5023
F3.2
s(I1
I4
I86400
I35915
tp5024
F2.5
s(I2
I0
I0
I217626
tp5025
F2.5
s(I1
I3
I691200
I659955
tp5026
F2.5
s(I1
I3
I777600
I755777
tp5027
F2.5
s(I1
I3
I864000
I823030
tp5028
F2.5
s(I3
I0
I0
I232
tp5029
F3.2
s(I1
I3
I1209600
I1475524
tp5030
F2.5
s(I0
I0
I86400
I128550
tp5031
F2.5
s(I2
I4
I2246400
I2347297
tp5032
F2.5
s(I21
I0
I0
I114323
tp5033
F2.5
s(I2
I1
I86400
I79986
tp5034
F2.5
s(I1
I3
I1382400
I1893696
tp5035
F2.5
s(I1
I1
I86400
I37239
tp5036
F2.5
s(I0
I0
I86400
I70347
tp5037
F2.5
s(I2
I0
I0
I217577
tp5038
F2.5
s(I1
I4
I1296000
I1281237
tp5039
F2.5
s(I0
I0
I172800
I167717
tp5040
F2.5
s(I5
I0
I0
I9452
tp5041
F2.5
s(I4
I0
I0
I78593
tp5042
F2.5
s(I1
I2
I518400
I520575
tp5043
F2.5
s(I1
I2
I432000
I408624
tp5044
F2.5
s(I1
I8
I1468800
I1499482
tp5045
F2.5
s(I2
I18
I518400
I529806
tp5046
F2.5
s(I10
I0
I0
I238
tp5047
F3.2
s(I1
I12
I86400
I39278
tp5048
F2.5
s(I0
I0
I86400
I105274
tp5049
F2.5
s(I2
I1
I172800
I177775
tp5050
F2.5
s(I0
I0
I86400
I126278
tp5051
F2.5
s(I1
I4
I1987200
I2098102
tp5052
F2.5
s(I6
I0
I0
I30
tp5053
F3.2
s(I1
I2
I432000
I424228
tp5054
F2.5
s(I1
I7
I172800
I116531
tp5055
F2.5
s(I2
I1
I86400
I77235
tp5056
F2.5
s(I1
I0
I0
I177
tp5057
F3.2
s(I1
I6
I172800
I149951
tp5058
F2.5
s(I10
I0
I0
I352
tp5059
F3.2
s(I1
I1
I172800
I237859
tp5060
F2.5
s(I1
I11
I864000
I931048
tp5061
F2.5
s(I5
I0
I0
I79917
tp5062
F2.5
s(I8
I0
I0
I177271
tp5063
F2.5
s(I5
I0
I0
I39
tp5064
F3.2
s(I4
I0
I0
I295
tp5065
F3.2
s(I1
I1
I86400
I106003
tp5066
F2.5
s(I1
I13
I345600
I387016
tp5067
F2.5
s(I1
I8
I86400
I2595
tp5068
F2.5
s(I11
I0
I0
I1262
tp5069
F2.5
s(I1
I2
I518400
I496007
tp5070
F2.5
s(I1
I0
I0
I904
tp5071
F3.2
s(I7
I0
I0
I154
tp5072
F3.2
s(I1
I6
I864000
I1048029
tp5073
F2.5
s(I10
I0
I0
I121
tp5074
F3.2
s(I3
I0
I0
I291
tp5075
F3.2
s(I1
I4
I259200
I47
tp5076
F2.5
s(I0
I0
I604800
I941817
tp5077
F2.5
s(I3
I0
I0
I10387
tp5078
F2.5
s(I11
I0
I0
I336
tp5079
F3.2
s(I1
I7
I259200
I3603
tp5080
F2.5
s(I1
I2
I604800
I688471
tp5081
F2.5
s(I1
I7
I345600
I3314
tp5082
F2.5
s(I1
I2
I518400
I524801
tp5083
F2.5
s(I9
I0
I0
I48
tp5084
F3.2
s(I1
I2
I518400
I556251
tp5085
F2.5
s(I1
I3
I432000
I481470
tp5086
F2.5
s(I0
I0
I86400
I165489
tp5087
F2.5
s(I4
I0
I0
I241
tp5088
F3.2
s(I3
I0
I0
I177
tp5089
F3.2
s(I5
I0
I0
I168
tp5090
F3.2
s(I1
I0
I0
I13796
tp5091
F2.5
s(I3
I0
I0
I424
tp5092
F3.2
s(I22
I0
I0
I283
tp5093
F2.5
s(I1
I0
I0
I616
tp5094
F3.2
s(I6
I2
I432000
I559002
tp5095
F2.5
s(I9
I0
I0
I172152
tp5096
F2.5
s(I16
I0
I0
I72437
tp5097
F2.5
s(I2
I0
I0
I492
tp5098
F3.2
s(I15
I0
I0
I223
tp5099
F3.2
s(I14
I0
I0
I207
tp5100
F3.2
s(I6
I0
I0
I113
tp5101
F3.2
s(I1
I1
I172800
I197885
tp5102
F2.5
s(I1
I0
I0
I154
tp5103
F3.2
s(I7
I0
I0
I294
tp5104
F3.2
s(I3
I0
I0
I17
tp5105
F3.2
s(I2
I0
I0
I245
tp5106
F3.2
s(I6
I1
I172800
I884311
tp5107
F2.5
s(I1
I2
I432000
I199596
tp5108
F2.5
s(I2
I1
I86400
I2463
tp5109
F2.5
s(I5
I0
I0
I200
tp5110
F3.2
s(I6
I0
I0
I10259
tp5111
F2.5
s(I1
I0
I0
I1104
tp5112
F3.2
s(I7
I0
I0
I2626
tp5113
F2.5
s(I0
I0
I172800
I365745
tp5114
F2.5
s(I3
I0
I0
I264
tp5115
F3.2
s(I2
I0
I0
I26
tp5116
F3.2
s(I1
I9
I518400
I533941
tp5117
F2.5
s(I11
I0
I0
I2435
tp5118
F2.5
s(I7
I0
I0
I871
tp5119
F3.2
s(I4
I0
I0
I487
tp5120
F3.2
s(I2
I0
I0
I2952206
tp5121
F2.5
s(I1
I0
I0
I13448
tp5122
F2.5
s(I2
I0
I0
I99526
tp5123
F2.5
s(I3
I1
I86400
I79719
tp5124
F2.5
s(I22
I0
I0
I796
tp5125
F2.5
s(I1
I1
I86400
I36703
tp5126
F2.5
s(I9
I0
I0
I201
tp5127
F3.2
s(I1
I8
I259200
I198856
tp5128
F2.5
s(I1
I12
I777600
I760096
tp5129
F2.5
s(I1
I3
I345600
I2799
tp5130
F2.5
s(I1
I4
I1036800
I1041573
tp5131
F2.5
s(I6
I0
I0
I209
tp5132
F3.2
s(I10
I0
I0
I1135
tp5133
F2.5
s(I1
I2
I432000
I424221
tp5134
F2.5
s(I1
I1
I172800
I157618
tp5135
F2.5
s(I1
I0
I0
I890
tp5136
F3.2
s(I5
I0
I0
I79251
tp5137
F2.5
s(I3
I0
I0
I113
tp5138
F3.2
s(I0
I0
I172800
I167763
tp5139
F2.5
s(I0
I0
I432000
I424266
tp5140
F2.5
s(I1
I4
I172800
I106426
tp5141
F2.5
s(I21
I0
I0
I124
tp5142
F2.5
s(I5
I0
I0
I104
tp5143
F3.2
s(I11
I0
I0
I1191
tp5144
F2.5
s(I2
I6
I259200
I92808
tp5145
F2.5
s(I0
I0
I86400
I157529
tp5146
F2.5
s(I1
I7
I172800
I132013
tp5147
F2.5
s(I1
I10
I518400
I24792
tp5148
F2.5
s(I1
I0
I0
I492
tp5149
F3.2
s(I1
I2
I518400
I476621
tp5150
F2.5
s(I15
I0
I0
I785
tp5151
F2.5
s(I1
I1
I172800
I402823
tp5152
F2.5
s(I0
I0
I86400
I92232
tp5153
F2.5
s(I1
I1
I172800
I4417
tp5154
F2.5
s(I4
I0
I0
I350197
tp5155
F2.5
s(I1
I3
I1036800
I1376869
tp5156
F2.5
s(I1
I8
I518400
I241571
tp5157
F2.5
s(I1
I7
I691200
I722242
tp5158
F2.5
s(I5
I0
I0
I170440
tp5159
F2.5
s(I1
I2
I432000
I399290
tp5160
F2.5
s(I1
I10
I259200
I214184
tp5161
F2.5
s(I1
I2
I432000
I91631
tp5162
F2.5
s(I1
I6
I518400
I7869
tp5163
F2.5
s(I1
I1
I86400
I88293
tp5164
F2.5
s(I2
I2
I604800
I1067698
tp5165
F2.5
s(I3
I0
I0
I465
tp5166
F3.2
s(I2
I0
I0
I53
tp5167
F3.2
s(I4
I0
I0
I78615
tp5168
F2.5
s(I7
I1
I86400
I59267
tp5169
F2.5
s(I1
I2
I518400
I199813
tp5170
F2.5
s(I1
I1
I86400
I114843
tp5171
F2.5
s(I1
I14
I172800
I207246
tp5172
F2.5
s(I0
I0
I86400
I112356
tp5173
F2.5
s(I1
I0
I0
I76
tp5174
F3.2
s(I1
I1
I86400
I36315
tp5175
F2.5
s(I2
I0
I0
I423
tp5176
F3.2
s(I0
I0
I86400
I78264
tp5177
F2.5
s(I2
I0
I0
I114693
tp5178
F2.5
s(I5
I0
I0
I378
tp5179
F3.2
s(I38
I0
I0
I72445
tp5180
F2.5
s(I1
I0
I0
I163
tp5181
F3.2
s(I2
I0
I0
I86025
tp5182
F2.5
s(I0
I0
I172800
I323667
tp5183
F2.5
s(I0
I0
I3110400
I3102719
tp5184
F2.5
s(I2
I0
I0
I28058
tp5185
F2.5
s(I0
I0
I172800
I92265
tp5186
F2.5
s(I9
I0
I0
I72374
tp5187
F2.5
s(I1
I0
I0
I1049
tp5188
F3.2
s(I0
I0
I3196800
I3166290
tp5189
F2.5
s(I7
I0
I0
I104
tp5190
F3.2
s(I3
I0
I0
I305
tp5191
F3.2
s(I2
I0
I0
I10414
tp5192
F2.5
s(I1
I2
I432000
I642179
tp5193
F2.5
s(I1
I3
I172800
I53637
tp5194
F2.5
s(I1
I1
I86400
I26009
tp5195
F2.5
s(I1
I2
I518400
I479442
tp5196
F2.5
s(I13
I0
I0
I198
tp5197
F3.2
s(I3
I1
I172800
I323811
tp5198
F2.5
s(I24
I1
I86400
I53959
tp5199
F2.5
s(I3
I0
I0
I66540
tp5200
F2.5
s(I0
I0
I1468800
I1893676
tp5201
F2.5
s(I14
I0
I0
I153
tp5202
F3.2
s(I2
I11
I1555200
I1557915
tp5203
F2.5
s(I0
I0
I86400
I77858
tp5204
F2.5
s(I13
I0
I0
I1034
tp5205
F2.5
s(I1
I1
I518400
I507029
tp5206
F2.5
s(I3
I0
I0
I199
tp5207
F3.2
s(I2
I0
I0
I411
tp5208
F3.2
s(I1
I3
I864000
I941893
tp5209
F2.5
s(I1
I2
I518400
I495052
tp5210
F2.5
s(I2
I0
I0
I114202
tp5211
F2.5
s(I2
I2
I432000
I419998
tp5212
F2.5
s(I3
I0
I0
I79060
tp5213
F2.5
s(I1
I5
I259200
I265422
tp5214
F2.5
s(I1
I0
I0
I350
tp5215
F3.2
s(I6
I0
I0
I497
tp5216
F3.2
s(I11
I0
I0
I479
tp5217
F3.2
s(I3
I0
I0
I597
tp5218
F3.2
s(I5
I0
I0
I532
tp5219
F3.2
s(I2
I0
I0
I10318
tp5220
F2.5
s(I4
I0
I0
I126
tp5221
F3.2
s(I2
I0
I0
I478
tp5222
F3.2
s(I1
I1
I172800
I245279
tp5223
F2.5
s(I1
I2
I518400
I496009
tp5224
F2.5
s(I6
I0
I0
I99
tp5225
F3.2
s(I1
I2
I432000
I648253
tp5226
F2.5
s(I0
I0
I86400
I79652
tp5227
F2.5
s(I1
I2
I518400
I493697
tp5228
F2.5
s(I12
I0
I0
I281
tp5229
F3.2
s(I2
I0
I0
I231
tp5230
F3.2
s(I1
I9
I1382400
I1442295
tp5231
F2.5
s(I1
I2
I604800
I635158
tp5232
F2.5
s(I5
I0
I0
I58
tp5233
F3.2
s(I3
I0
I0
I3939
tp5234
F2.5
s(I23
I0
I0
I453
tp5235
F2.5
s(I7
I0
I0
I177
tp5236
F3.2
s(I0
I0
I86400
I125615
tp5237
F2.5
s(I3
I0
I0
I286
tp5238
F3.2
s(I2
I0
I0
I12
tp5239
F2.9
s(I1
I0
I0
I318
tp5240
F3.2
s(I11
I0
I0
I2481
tp5241
F2.5
s(I4
I1
I86400
I47626
tp5242
F2.5
s(I1
I2
I432000
I1340
tp5243
F2.5
s(I28
I0
I0
I155
tp5244
F2.5
s(I1
I2
I518400
I479467
tp5245
F2.5
s(I2
I0
I0
I14114
tp5246
F2.5
s(I1
I4
I1382400
I1392602
tp5247
F2.5
s(I1
I6
I86400
I35945
tp5248
F2.5
s(I1
I0
I0
I762
tp5249
F3.2
s(I6
I0
I0
I212
tp5250
F3.2
s(I0
I0
I86400
I139522
tp5251
F2.5
s(I1
I10
I1468800
I1656046
tp5252
F2.5
s(I4
I0
I0
I158
tp5253
F3.2
s(I2
I0
I0
I382
tp5254
F3.2
s(I2
I2
I518400
I538167
tp5255
F2.5
s(I6
I0
I0
I195
tp5256
F3.2
s(I5
I0
I0
I323
tp5257
F3.2
s(I1
I1
I86400
I157638
tp5258
F2.5
s(I1
I6
I172800
I131998
tp5259
F2.5
s(I11
I0
I0
I1001
tp5260
F2.5
s(I2
I0
I0
I135
tp5261
F3.2
s(I1
I1
I345600
I0
tp5262
F2.5
s(I2
I1
I86400
I75834
tp5263
F2.5
s(I1
I2
I604800
I616571
tp5264
F2.5
s(I20
I0
I0
I280
tp5265
F2.5
s(I9
I0
I0
I13236
tp5266
F2.5
s(I5
I0
I0
I90
tp5267
F3.2
s(I1
I4
I259200
I236815
tp5268
F2.5
s(I1
I6
I1296000
I1558175
tp5269
F2.5
s(I3
I0
I0
I9640
tp5270
F2.5
s(I1
I0
I0
I414
tp5271
F3.2
s(I15
I0
I0
I187
tp5272
F3.2
s(I1
I2
I432000
I53857
tp5273
F2.5
s(I1
I2
I432000
I423735
tp5274
F2.5
s(I5
I0
I0
I125
tp5275
F3.2
s(I0
I0
I518400
I504765
tp5276
F2.5
s(I9
I0
I0
I123
tp5277
F3.2
s(I5
I0
I0
I943
tp5278
F3.2
s(I1
I8
I259200
I152254
tp5279
F2.5
s(I1
I2
I432000
I436920
tp5280
F2.5
s(I5
I0
I0
I9521
tp5281
F2.5
s(I1
I2
I518400
I524803
tp5282
F2.5
s(I3
I0
I0
I36680
tp5283
F2.5
s(I1
I3
I518400
I492649
tp5284
F2.5
s(I3
I2
I518400
I476648
tp5285
F2.5
s(I1
I15
I172800
I181256
tp5286
F2.5
s(I0
I0
I1468800
I3806333
tp5287
F2.5
s(I2
I0
I0
I39
tp5288
F3.2
s(I1
I0
I0
I359
tp5289
F3.2
s(I4
I0
I0
I396
tp5290
F3.2
s(I1
I5
I691200
I722340
tp5291
F2.5
s(I6
I0
I0
I89406
tp5292
F2.5
s(I1
I0
I0
I102474
tp5293
F2.5
s(I4
I0
I0
I34
tp5294
F3.2
s(I1
I10
I86400
I2551
tp5295
F2.5
s(I1
I0
I0
I126
tp5296
F3.2
s(I3
I1
I86400
I35103
tp5297
F2.5
s(I0
I0
I432000
I405749
tp5298
F2.5
s(I0
I0
I86400
I82362
tp5299
F2.5
s(I2
I2
I518400
I525029
tp5300
F2.5
s(I1
I1
I86400
I3557
tp5301
F2.5
s(I3
I0
I0
I885
tp5302
F3.2
s(I46
I0
I0
I216
tp5303
F2.5
s(I2
I0
I0
I1032
tp5304
F3.2
s(I1
I7
I172800
I5501
tp5305
F2.5
s(I1
I2
I604800
I604578
tp5306
F2.5
s(I0
I0
I86400
I92198
tp5307
F2.5
s(I1
I11
I950400
I930986
tp5308
F2.5
s(I0
I0
I86400
I58949
tp5309
F2.5
s(I3
I0
I0
I108
tp5310
F3.2
s(I1
I2
I518400
I967873
tp5311
F2.5
s(I3
I0
I0
I177094
tp5312
F2.5
s(I0
I0
I518400
I525081
tp5313
F2.5
s(I1
I1
I172800
I135077
tp5314
F2.5
s(I5
I0
I0
I3
tp5315
F3.2
s(I1
I1
I86400
I26037
tp5316
F2.5
s(I2
I0
I0
I1402
tp5317
F3.2
s(I1
I0
I0
I455
tp5318
F3.2
s(I5
I1
I172800
I324252
tp5319
F2.5
s(I4
I0
I0
I44
tp5320
F3.2
s(I14
I1
I86400
I125528
tp5321
F2.5
s(I24
I0
I0
I377
tp5322
F2.5
s(I1
I2
I518400
I648294
tp5323
F2.5
s(I1
I0
I0
I222
tp5324
F3.2
s(I6
I0
I0
I72527
tp5325
F2.5
s(I1
I2
I518400
I493687
tp5326
F2.5
s(I11
I0
I0
I95
tp5327
F3.2
s(I4
I0
I0
I213
tp5328
F3.2
s(I3
I0
I0
I213
tp5329
F3.2
s(I1
I1
I86400
I61778
tp5330
F2.5
s(I5
I0
I0
I148
tp5331
F3.2
s(I13
I2
I432000
I437634
tp5332
F2.5
s(I1
I10
I604800
I24794
tp5333
F2.5
s(I7
I0
I0
I239
tp5334
F3.2
s(I2
I0
I0
I54171
tp5335
F2.5
s(I1
I8
I518400
I537507
tp5336
F2.5
s(I1
I10
I1296000
I1811047
tp5337
F2.5
s(I2
I0
I0
I94
tp5338
F3.2
s(I2
I0
I0
I217572
tp5339
F2.5
s(I1
I3
I432000
I244
tp5340
F2.5
s(I4
I0
I0
I347
tp5341
F3.2
s(I1
I1
I172800
I210890
tp5342
F2.5
s(I7
I0
I0
I6
tp5343
F1.3
s(I0
I0
I86400
I83042
tp5344
F2.5
s(I1
I0
I0
I423
tp5345
F3.2
s(I0
I0
I86400
I79801
tp5346
F2.5
s(I3
I2
I518400
I515270
tp5347
F2.5
s(I1
I5
I172800
I172526
tp5348
F2.5
s(I4
I0
I0
I2
tp5349
F3.2
s(I1
I1
I86400
I80493
tp5350
F2.5
s(I1
I3
I172800
I91459
tp5351
F2.5
s(I3
I0
I0
I53
tp5352
F3.2
s(I2
I0
I0
I233
tp5353
F3.2
s(I2
I1
I86400
I157224
tp5354
F2.5
s(I0
I0
I432000
I445970
tp5355
F2.5
s(I2
I2
I604800
I617569
tp5356
F2.5
s(I0
I0
I604800
I584588
tp5357
F2.5
s(I1
I2
I604800
I609221
tp5358
F2.5
s(I16
I0
I0
I205
tp5359
F3.2
s(I1
I1
I86400
I115215
tp5360
F2.5
s(I0
I0
I86400
I165846
tp5361
F2.5
s(I1
I9
I345600
I2358
tp5362
F2.5
s(I3
I0
I0
I238686
tp5363
F2.5
s(I3
I0
I0
I300
tp5364
F3.2
s(I1
I0
I0
I177033
tp5365
F2.5
s(I2
I0
I0
I86013
tp5366
F2.5
s(I21
I0
I0
I151
tp5367
F2.5
s(I2
I1
I172800
I171115
tp5368
F2.5
s(I6
I0
I0
I114317
tp5369
F2.5
s(I48
I0
I0
I2543
tp5370
F2.5
s(I0
I0
I2246400
I2347296
tp5371
F2.5
s(I0
I0
I432000
I435700
tp5372
F2.5
s(I1
I2
I518400
I479510
tp5373
F2.5
s(I1
I1
I432000
I351285
tp5374
F2.5
s(I34
I0
I0
I584
tp5375
F2.5
s(I6
I0
I0
I680
tp5376
F3.2
s(I3
I0
I0
I162
tp5377
F3.2
s(I2
I1
I172800
I284398
tp5378
F2.5
s(I1
I4
I259200
I209207
tp5379
F2.5
s(I1
I0
I0
I147904
tp5380
F2.5
s(I2
I2
I604800
I63825
tp5381
F2.5
s(I1
I0
I0
I41007
tp5382
F2.5
s(I0
I0
I172800
I146463
tp5383
F2.5
s(I22
I0
I0
I586
tp5384
F2.5
s(I4
I0
I0
I42233
tp5385
F2.5
s(I3
I0
I0
I405
tp5386
F3.2
s(I1
I3
I864000
I1041527
tp5387
F2.5
s(I1
I0
I0
I100025
tp5388
F2.5
s(I1
I3
I1296000
I1062853
tp5389
F2.5
s(I1
I10
I259200
I104173
tp5390
F2.5
s(I1
I4
I1900800
I1964379
tp5391
F2.5
s(I5
I0
I0
I84
tp5392
F3.2
s(I4
I0
I0
I370
tp5393
F3.2
s(I4
I1
I172800
I171645
tp5394
F2.5
s(I8
I0
I0
I211
tp5395
F3.2
s(I0
I0
I172800
I3451109
tp5396
F2.5
s(I1
I1
I172800
I294585
tp5397
F2.5
s(I3
I2
I432000
I392846
tp5398
F2.5
s(I17
I0
I0
I220
tp5399
F2.5
s(I10
I0
I0
I164
tp5400
F3.2
s(I1
I1
I86400
I25954
tp5401
F2.5
s(I4
I0
I0
I27
tp5402
F3.2
s(I5
I0
I0
I170525
tp5403
F2.5
s(I1
I10
I172800
I156489
tp5404
F2.5
s(I1
I1
I518400
I476057
tp5405
F2.5
s(I1
I2
I604800
I758651
tp5406
F2.5
s(I1
I1
I86400
I101048
tp5407
F2.5
s(I1
I2
I518400
I505744
tp5408
F2.5
s(I6
I0
I0
I72454
tp5409
F2.5
s(I1
I2
I604800
I93723
tp5410
F2.5
s(I3
I0
I0
I2
tp5411
F2.77
s(I2
I1
I172800
I218958
tp5412
F2.5
s(I0
I0
I86400
I38215
tp5413
F2.5
s(I5
I0
I0
I221
tp5414
F3.2
s(I0
I0
I518400
I314570
tp5415
F2.5
s(I0
I0
I604800
I582002
tp5416
F2.5
s(I1
I6
I259200
I214033
tp5417
F2.5
s(I0
I0
I86400
I2462
tp5418
F2.5
s(I7
I0
I0
I212
tp5419
F3.2
s(I8
I2
I518400
I476653
tp5420
F2.5
s(I17
I0
I0
I325
tp5421
F2.5
s(I3
I0
I0
I501
tp5422
F3.2
s(I2
I0
I0
I41
tp5423
F3.2
s(I2
I2
I604800
I646622
tp5424
F2.5
s(I1
I2
I604800
I730092
tp5425
F2.5
s(I4
I0
I0
I2452
tp5426
F2.5
s(I29
I0
I0
I118
tp5427
F1.3
s(I23
I0
I0
I243
tp5428
F2.5
s(I2
I8
I86400
I3587
tp5429
F2.5
s(I1
I0
I0
I112
tp5430
F3.2
s(I10
I0
I0
I72510
tp5431
F2.5
s(I3
I0
I0
I139
tp5432
F3.2
s(I1
I8
I1036800
I1005082
tp5433
F2.5
s(I2
I3
I1641600
I1625339
tp5434
F2.5
s(I6
I0
I0
I36
tp5435
F3.2
s(I2
I0
I0
I13489
tp5436
F2.5
s(I2
I1
I86400
I57122
tp5437
F2.5
s(I1
I0
I0
I839
tp5438
F3.2
s(I3
I0
I0
I98
tp5439
F3.2
s(I2
I0
I0
I160
tp5440
F3.2
s(I0
I0
I172800
I167750
tp5441
F2.5
s(I0
I0
I86400
I78525
tp5442
F2.5
s(I0
I0
I172800
I790686
tp5443
F2.5
s(I6
I0
I0
I269
tp5444
F3.2
s(I1
I8
I172800
I106161
tp5445
F2.5
s(I1
I2
I432000
I3166
tp5446
F2.5
s(I10
I0
I0
I2508
tp5447
F2.5
s(I1
I1
I172800
I324475
tp5448
F2.5
s(I3
I0
I0
I5116
tp5449
F2.5
s(I2
I4
I86400
I35957
tp5450
F2.5
s(I1
I4
I172800
I4365
tp5451
F2.5
s(I1
I2
I604800
I588256
tp5452
F2.5
s(I4
I0
I0
I50
tp5453
F3.2
s(I2
I1
I172800
I884115
tp5454
F2.5
s(I2
I2
I604800
I100310
tp5455
F2.5
s(I7
I0
I0
I367
tp5456
F3.2
s(I2
I0
I0
I66270
tp5457
F2.5
s(I1
I0
I0
I208
tp5458
F3.2
s(I2
I1
I172800
I71041
tp5459
F2.5
s(I4
I0
I0
I219
tp5460
F3.2
s(I2
I0
I0
I315
tp5461
F3.2
s(I2
I3
I518400
I481200
tp5462
F2.5
s(I1
I1
I86400
I114019
tp5463
F2.5
s(I24
I0
I0
I213
tp5464
F2.5
s(I1
I4
I432000
I249
tp5465
F2.5
s(I1
I1
I86400
I80772
tp5466
F2.5
s(I6
I0
I0
I1577
tp5467
F2.5
s(I3
I0
I0
I72303
tp5468
F2.5
s(I8
I0
I0
I33
tp5469
F1.3
s(I2
I0
I0
I64
tp5470
F3.2
s(I0
I0
I86400
I70348
tp5471
F2.5
s(I1
I1
I172800
I237993
tp5472
F2.5
s(I8
I0
I0
I234
tp5473
F3.2
s(I1
I1
I432000
I423692
tp5474
F2.5
s.